{
  "main_library": {
    "compatibility_versions": [
      {
        "version": "4"
      }
    ],
    "current_versions": [
      {
        "version": "0"
      }
    ],
    "exported_symbols": [
      {
        "text": {
          "global": [
            "__Z18setDerivativeFloatPjmii",
            "_lerc_computeCompressedSize",
            "__Z22setRowsDerivativeFloatPjmmii",
            "__ZN6LercNS21LosslessFPCompression27ComputeHuffmanCodesFltSliceEPKvbii",
            "__Z23restoreCrossBytesDoubleiPymm",
            "_lerc_computeCompressedSize_4D",
            "__ZN6LercNS15fpl_Compression14getEntropySizeEPKhm",
            "__ZNK6LercNS11BitStuffer28BitStuffEPPhRKNSt3__16vectorIjNS3_9allocatorIjEEEEi",
            "__ZN6LercNS4Lerc7ConvertERKNS_7BitMaskEPh",
            "_lerc_encodeForVersion",
            "_lerc_getDataRanges",
            "__ZN6LercNS5Lerc2C1Ev",
            "__Z24setCrossDerivativeDoublePymmii",
            "__ZN6LercNS10BitStuffer21numTailBytesNotNeededEji",
            "_lerc_decodeToDouble",
            "__ZNK6LercNS7BitMask14CountValidBitsEv",
            "__ZNK6LercNS3RLE18computeNumBytesRLEEPKhm",
            "__ZN6LercNS21LosslessFPCompression22ComputeHuffmanCodesFltEPKvbiii",
            "__ZN6LercNS9CntZImage4readEPPKhdbb",
            "__ZN6LercNS21LosslessFPCompressionD1Ev",
            "__Z13ADD64_BIT_DBLRKyS0_",
            "__ZN6LercNS5Lerc29GetRangesEPKhmPdS3_",
            "__ZN6LercNS9Predictor7getCodeENS_13PredictorTypeE",
            "__ZN6LercNS9UnitTypes18undoFloatTransformEPjm",
            "__ZNK6LercNS11BitStuffer212EncodeSimpleEPPhRKNSt3__16vectorIjNS3_9allocatorIjEEEEi",
            "__ZN6LercNS11BitStuffer224ComputeNumBytesNeededLutERKNSt3__16vectorINS1_4pairIjjEENS1_9allocatorIS4_EEEERb",
            "__ZNK6LercNS5Lerc29WriteMaskEPPh",
            "__ZN6LercNS5Lerc211SetIsAllIntEb",
            "__ZN6LercNS9UnitTypes4typeEib",
            "__ZN6LercNS21LosslessFPCompression16DecodeHuffmanFltEPPKhRmPvbiii",
            "__ZN6LercNS4Lerc11MasksDifferEPKhS2_m",
            "__ZN6LercNS15fpl_EsriHuffman13EncodeHuffmanEPKcmPPhb",
            "__Z23setCrossDerivativeFloatPjmmii",
            "__ZN6LercNS15fpl_Compression14extract_bufferEPKcmmPPc",
            "__ZN6LercNS9Predictor7getTypeEc",
            "__ZN6LercNS7Huffman9ClearTreeEv",
            "__ZN6LercNS5Lerc215SetNoDataValuesEbdd",
            "__ZN6LercNS5Lerc2C2Ev",
            "__ZN6LercNS5Lerc214SortQuantArrayERKNSt3__16vectorIjNS1_9allocatorIjEEEERNS2_INS1_4pairIjjEENS3_IS9_EEEE",
            "__Z13ADD32_BIT_FLTRKjS0_",
            "__ZNK6LercNS11BitStuffer210BitUnStuffEPPKhRmRNSt3__16vectorIjNS5_9allocatorIjEEEEji",
            "__Z25restoreBlockSequenceFloatiPjmm",
            "__ZN6LercNS3RLE10writeCountEsPPhS2_",
            "__ZN6LercNS3RLE10decompressEPKhmPPhRm",
            "__ZN6LercNS4Lerc7ConvertEPKhiiRNS_7BitMaskE",
            "__Z15restoreSequencePhmib",
            "_lerc_decodeToDouble_4D",
            "__ZN6LercNS15fpl_EsriHuffman17getCompressedSizeEPKcm",
            "__ZN6LercNS5Lerc23SetEiiiPKh",
            "__Z23setRowsDerivativeDoublePymmii",
            "__ZN6LercNS7BitMaskC1ERKS0_",
            "__Z13SUB32_BIT_FLTRKjS0_",
            "_lerc_decode",
            "__ZN6LercNS9CntZImage9readTilesEbdiifPKh",
            "__ZN6LercNS7Huffman18BuildTreeFromCodesERi",
            "__ZN6LercNS3RLE9readCountEPPKh",
            "__Z26restoreBlockSequenceDoubleiPymm",
            "_lerc_encode_4D",
            "__ZN6LercNS7Huffman15BitUnStuffCodesEPPKhRmii",
            "__ZNK6LercNS7Huffman8GetRangeERiS1_S1_",
            "__Z14moveBits2Frontj",
            "__ZN6LercNS9CntZImage11readCntTileEPPKhiiii",
            "__ZN6LercNS9CntZImageC2Ev",
            "__ZNK6LercNS11BitStuffer26DecodeEPPKhRmRNSt3__16vectorIjNS5_9allocatorIjEEEEmi",
            "__ZN6LercNS7BitMask7SetSizeEii",
            "__ZN6LercNS4Lerc21ComputeCompressedSizeEPKviNS0_8DataTypeEiiiiiPKhdRjS5_PKd",
            "__ZNK6LercNS7BitMask13SetAllInvalidEv",
            "__ZN6LercNS5Lerc28ReadMaskEPPKhRm",
            "__ZN6LercNS15fpl_Compression15compress_bufferEPKcmPPcb",
            "__Z19undo_moveBits2Frontj",
            "__Z16restoreByteOrderRNSt3__16vectorINS_4pairIiPcEENS_9allocatorIS3_EEEEmmN6LercNS13PredictorTypeENS8_8UnitTypeEPPh",
            "__Z17restoreCrossBytesRNSt3__16vectorINS_4pairIiPcEENS_9allocatorIS3_EEEEmmmN6LercNS13PredictorTypeENS8_8UnitTypeEPPh",
            "__ZN6LercNS5Lerc210ReadHeaderEPPKhRmRNS0_10HeaderInfoE",
            "__ZN6LercNS9CntZImage11numBytesFltEf",
            "__ZNK6LercNS7Huffman21ComputeCompressedSizeERKNSt3__16vectorIiNS1_9allocatorIiEEEERiRd",
            "__ZN6LercNS15fpl_EsriHuffman13DecodeHuffmanEPKhmRmPPh",
            "__ZN6LercNS4Lerc11GetLercInfoEPKhjRNS0_8LercInfoEPdS5_m",
            "__ZNK6LercNS10BitStuffer4readEPPKhRNSt3__16vectorIjNS4_9allocatorIjEEEE",
            "__ZNK6LercNS11BitStuffer225BitUnStuff_Before_Lerc2v3EPPKhRmRNSt3__16vectorIjNS5_9allocatorIjEEEEji",
            "__Z11lerc_assertb",
            "__ZN6LercNS5Lerc215PruneCandidatesERNSt3__16vectorIdNS1_9allocatorIdEEEES6_RNS2_IiNS3_IiEEEEd",
            "__ZN6LercNS7Huffman12ComputeCodesERKNSt3__16vectorIiNS1_9allocatorIiEEEE",
            "__Z15getPackBitsSizePKhmPl",
            "__Z13getBestLevel2PKhmi",
            "__ZN6LercNS9Predictor15getMaxByteDeltaENS_13PredictorTypeE",
            "__ZN6LercNS9UnitTypes18setBlockDerivativeENS_8UnitTypeEPvmmii",
            "__ZN6LercNS21LosslessFPCompression16EncodeHuffmanFltEPPh",
            "__ZN6LercNS21LosslessFPCompression21DecodeHuffmanFltSliceEPPKhRmPvbii",
            "__Z22ComputeHistoForHuffmanPKhmRNSt3__16vectorIiNS1_9allocatorIiEEEE",
            "__ZN6LercNS9Predictor11getIntDeltaENS_13PredictorTypeE",
            "__ZN6LercNS5Lerc222SetEncoderToOldVersionEi",
            "__ZN6LercNS9UnitTypes17setRowsDerivativeENS_8UnitTypeEPvmmii",
            "_lerc_decode_4D",
            "__ZN6LercNS9CntZImage11resizeFill0Eii",
            "__ZN6LercNS5Lerc24InitEv",
            "__ZN6LercNS9UnitTypes18setCrossDerivativeENS_8UnitTypeEPvmmii",
            "__Z14decodePackBitsPKhmmPPh",
            "__ZNK6LercNS7Huffman13BitStuffCodesEPPhii",
            "__Z13SUB64_BIT_DBLRKyS0_",
            "__ZN6LercNS5Lerc221SetNumBlobsMoreToComeEi",
            "__ZNK6LercNS7BitMask11SetAllValidEv",
            "__ZN6LercNS7Huffman13ReadCodeTableEPPKhRmi",
            "__ZN6LercNS9UnitTypes16doFloatTransformEPjm",
            "__ZN6LercNS7BitMaskC2ERKS0_",
            "__ZN6LercNS9UnitTypes4sizeENS_8UnitTypeE",
            "_lerc_getBlobInfo",
            "__ZN6LercNS4Lerc6DecodeEPKhjiPhiiiiNS0_8DataTypeEPvS3_Pd",
            "__ZN6LercNS11BitStuffer223BitStuff_Before_Lerc2v3EPPhRKNSt3__16vectorIjNS3_9allocatorIjEEEEi",
            "__ZN6LercNS9CntZImage9readZTileEPPKhiiiidf",
            "__ZN6LercNS5Lerc2C2EiiiPKh",
            "__ZN6LercNS9UnitTypes17restoreCrossBytesEiPvmmNS_8UnitTypeE",
            "__ZN6LercNS5Lerc228ComputeNumBytesHeaderToWriteERKNS0_10HeaderInfoE",
            "__ZN6LercNS7BitMaskaSERKS0_",
            "__ZN6LercNS9Predictor17fromDeltaAndCrossEib",
            "__ZN6LercNS10BitStuffer8readUIntEPPKhRji",
            "__ZN6LercNS9UnitTypes8unitCodeENS_8UnitTypeE",
            "__Z12getBestLevelPKhmi",
            "__ZNK6LercNS11BitStuffer29EncodeLutEPPhRKNSt3__16vectorINS3_4pairIjjEENS3_9allocatorIS6_EEEEi",
            "__Z14encodePackBitsPKhmPPh",
            "__ZN6LercNS9CntZImageC1Ev",
            "__ZNK6LercNS7Huffman14WriteCodeTableEPPhi",
            "__ZN6LercNS4Lerc6EncodeEPKviNS0_8DataTypeEiiiiiPKhdPhjRjS5_PKd",
            "__Z22restoreCrossBytesFloatiPjmm",
            "__ZN6LercNS7Huffman5ClearEv",
            "__ZN6LercNS21LosslessFPCompressionD2Ev",
            "__ZN6LercNS5Lerc2C1EiiiPKh",
            "__ZN6LercNS9UnitTypes13setDerivativeENS_8UnitTypeEPvmii",
            "__ZN6LercNS3RLE10decompressEPKhmPhm",
            "__ZN6LercNS9CntZImage7readFltEPPKhRfi",
            "__ZNK6LercNS5Lerc216DoChecksOnEncodeEPhS1_",
            "__ZN6LercNS9CntZImage33computeNumBytesNeededToReadHeaderEb",
            "__ZN6LercNS7Huffman23ConvertCodesToCanonicalEv",
            "__Z19setDerivativeDoublePymii",
            "__ZNK6LercNS7Huffman24ComputeNumBytesCodeTableERi",
            "__ZN6LercNS5Lerc213GetHeaderInfoEPKhmRNS0_10HeaderInfoERb",
            "__ZN6LercNS7Huffman8SetCodesERKNSt3__16vectorINS1_4pairItjEENS1_9allocatorIS4_EEEE",
            "__ZN6LercNS4Lerc9GetRangesEPKhjiRKNS_5Lerc210HeaderInfoEPdS7_m",
            "__ZN6LercNS5Lerc225ComputeChecksumFletcher32EPKhi",
            "__ZN6LercNS21LosslessFPCompression31selectInitialLinearOrCrossDeltaENS_8UnitTypeEPviiRiRbbPm",
            "__ZN6LercNS9UnitTypes20restoreBlockSequenceEiPvmmNS_8UnitTypeE",
            "__ZNK6LercNS3RLE8compressEPKhmPPhRmb",
            "__ZN6LercNS5Lerc211WriteHeaderEPPhRKNS0_10HeaderInfoE",
            "__ZN6LercNS7BitMask5ClearEv",
            "_lerc_computeCompressedSizeForVersion",
            "_lerc_encode",
            "__Z19ComputeHuffmanCodesPKhmRiRNSt3__16vectorINS2_4pairItjEENS2_9allocatorIS5_EEEE",
            "__ZNK6LercNS21LosslessFPCompression16compressedLengthEv",
            "__ZN6LercNS4Lerc15ConvertToDoubleEPKvNS0_8DataTypeEmPd"
          ],
          "weak": [
            "__ZNK6LercNS5Lerc219ComputeHuffmanCodesIaEEvPKT_RiRNS0_15ImageEncodeModeERNSt3__16vectorINS8_4pairItjEENS8_9allocatorISB_EEEE",
            "__ZNK6LercNS5Lerc216ReadDataOneSweepIfEEbPPKhRmPT_",
            "__ZN6LercNS5Lerc219ScaleBackConstBlockIhEEvPT_idbd",
            "__ZNK6LercNS5Lerc219ComputeHuffmanCodesIiEEvPKT_RiRNS0_15ImageEncodeModeERNSt3__16vectorINS8_4pairItjEENS8_9allocatorISB_EEEE",
            "__ZN6LercNS5Lerc219ComputeDiffSliceIntItEEbPKT_S4_ibdRNSt3__16vectorIiNS5_9allocatorIiEEEERiSB_Rb",
            "__ZNSt3__112__debug_lessINS0_INS_7greaterIdEEEEEclB8de180100IiiEEbRT_RT0_",
            "__ZN6LercNS4Lerc17EncodeInternal_v5IiEENS_7ErrCodeEPKT_iiiiiiPKhdRjPhjS8_",
            "__ZN6LercNS5Lerc219ComputeDiffSliceFltIdEEbPKT_S4_ibdRNSt3__16vectorIS2_NS5_9allocatorIS2_EEEERS2_SB_Rb",
            "__ZNK6LercNS5Lerc212NumBytesTileIsEEiiT_S2_NS0_8DataTypeEbRNS0_15BlockEncodeModeERKNSt3__16vectorINS6_4pairIjjEENS6_9allocatorIS9_EEEE",
            "__ZNK6LercNS5Lerc29ReadTilesIhEEbPPKhRmPT_",
            "__ZNSt3__16vectorINS_4pairImiEENS_9allocatorIS2_EEE21__push_back_slow_pathIS2_EEPS2_OT_",
            "__ZNK6LercNS5Lerc219ComputeHuffmanCodesIdEEvPKT_RiRNS0_15ImageEncodeModeERNSt3__16vectorINS8_4pairItjEENS8_9allocatorISB_EEEE",
            "__ZN6LercNS5Lerc29ScaleBackIsEEvPT_RKNSt3__16vectorIjNS4_9allocatorIjEEEEdbbdd",
            "__ZN6LercNS4Lerc11RemapNoDataIdEEbPT_RKNS_7BitMaskERKNS_5Lerc210HeaderInfoE",
            "__ZN6LercNS5Lerc228ComputeNumBytesNeededToWriteIiEEjPKT_db",
            "__ZN6LercNS6TImageINS_4CntZEE6resizeEii",
            "__ZN6LercNS4Lerc12FilterNoDataIsEENS_7ErrCodeERNSt3__16vectorIT_NS3_9allocatorIS5_EEEERNS4_IhNS6_IhEEEEiiiRdbSD_RbSE_",
            "__ZNSt3__112__debug_lessIRNS0_IRNS_7greaterIdEEEEE19__do_compare_assertB8de180100IhhEEDTcvvclclL_ZNS_7declvalB8de180100IS5_EEDTclsr3stdE9__declvalIT_ELi0EEEvEEclsr3stdE7declvalIRS9_EEclsr3stdE7declvalIRT0_EEEEiSB_SD_",
            "__ZNK6LercNS5Lerc217WriteDataOneSweepIhEEbPKT_PPh",
            "__ZNK6LercNS5Lerc219ComputeHuffmanCodesIfEEvPKT_RiRNS0_15ImageEncodeModeERNSt3__16vectorINS8_4pairItjEENS8_9allocatorISB_EEEE",
            "__ZNSt3__112__debug_lessINS_6__lessIvvEEE19__do_compare_assertB8de180100IddEEDTcvvclclL_ZNS_7declvalB8de180100IRS2_EEDTclsr3stdE9__declvalIT_ELi0EEEvEEclsr3stdE7declvalIRS7_EEclsr3stdE7declvalIRT0_EEEEiS9_SB_",
            "__ZNSt3__16vectorIjNS_9allocatorIjEEE21__push_back_slow_pathIRKjEEPjOT_",
            "__ZN6LercNS4Lerc26ComputeCompressedSizeTemplIdEENS_7ErrCodeEPKT_iiiiiiPKhdRjS7_PKd",
            "__ZNK6LercNS5Lerc213DecodeHuffmanIaEEbPPKhRmPT_",
            "__ZNSt3__19allocatorIfE9constructB8de180100IfJEEEvPT_DpOT0_",
            "__ZN6LercNS4Lerc16ReplaceNaNValuesIsEEbRNSt3__16vectorIT_NS2_9allocatorIS4_EEEERNS3_IhNS5_IhEEEEiii",
            "__ZNSt3__112__debug_lessINS0_INS0_IRNS0_IRNS_7greaterIdEEEEEEEEEclB8de180100IaaEEbRT_RT0_",
            "__ZNK6LercNS5Lerc216ReadDataOneSweepIiEEbPPKhRmPT_",
            "__ZN6LercNS4Lerc11CheckForNaNIfEENS_7ErrCodeEPKT_iiiPKh",
            "__ZN6LercNS5Lerc211GetDataTypeIhEENS0_8DataTypeET_",
            "__ZNSt3__19allocatorIjE9constructB8de180100IjJEEEvPT_DpOT0_",
            "__ZNSt3__16vectorIhNS_9allocatorIhEEE18__construct_at_endIPhS5_EEvT_T0_m",
            "__ZN6LercNS5Lerc228ComputeNumBytesNeededToWriteIhEEjPKT_db",
            "__ZNK6LercNS5Lerc222ComputeHistoForHuffmanIfEEvPKT_RNSt3__16vectorIiNS5_9allocatorIiEEEESA_",
            "__ZNSt3__112__debug_lessINS0_IRNS0_IRNS_7greaterIdEEEEEEE19__do_compare_assertB8de180100IffEEDTcvvclclL_ZNS_7declvalB8de180100IRS6_EEDTclsr3stdE9__declvalIT_ELi0EEEvEEclsr3stdE7declvalIRSB_EEclsr3stdE7declvalIRT0_EEEEiSD_SF_",
            "__ZN6LercNS5Lerc27FileKeyEv",
            "__ZNSt3__116allocator_traitsINS_9allocatorIPN6LercNS21LosslessFPCompression14outBlockBufferEEEE8max_sizeB8de180100IS6_vEEmRKS6_",
            "__ZNSt3__19allocatorItE9constructB8de180100ItJtEEEvPT_DpOT0_",
            "__ZNSt3__19allocatorItE9constructB8de180100ItJEEEvPT_DpOT0_",
            "__ZNSt3__19allocatorIdE9constructB8de180100IdJEEEvPT_DpOT0_",
            "__ZNSt3__16vectorIiNS_9allocatorIiEEE18__construct_at_endIPKiS6_EEvT_T0_m",
            "__ZN6LercNS5Lerc211GetDataTypeIfEENS0_8DataTypeET_",
            "__ZNSt3__116allocator_traitsINS_9allocatorIjEEE7destroyB8de180100IjvEEvRS2_PT_",
            "__ZN6LercNS4Lerc20ConvertToDoubleTemplIjEENS_7ErrCodeEPKT_mPd",
            "__ZNK6LercNS5Lerc217TryRaiseMaxZErrorIdEEbPKT_Rd",
            "__ZN6LercNS5Lerc26DecodeIiEEbPPKhRmPT_Ph",
            "__ZN6LercNS5Lerc26EncodeIiEEbPKT_PPh",
            "__ZNK6LercNS5Lerc216ReadDataOneSweepIaEEbPPKhRmPT_",
            "__ZNK6LercNS5Lerc217WriteDataOneSweepItEEbPKT_PPh",
            "__ZN6LercNS5Lerc26EncodeIaEEbPKT_PPh",
            "__ZNSt3__112__debug_lessIRNS_7greaterIdEEEclB8de180100IjjEEbRT_RT0_",
            "__ZN6LercNS5Lerc26EncodeItEEbPKT_PPh",
            "__ZNSt3__19allocatorIhE9constructB8de180100IhJEEEvPT_DpOT0_",
            "__ZNSt3__116allocator_traitsINS_9allocatorINS_4pairImiEEEEE8max_sizeB8de180100IS4_vEEmRKS4_",
            "__ZNSt3__112__debug_lessIRNS0_IRNS_7greaterIdEEEEE19__do_compare_assertB8de180100IffEEDTcvvclclL_ZNS_7declvalB8de180100IS5_EEDTclsr3stdE9__declvalIT_ELi0EEEvEEclsr3stdE7declvalIRS9_EEclsr3stdE7declvalIRT0_EEEEiSB_SD_",
            "__ZN6LercNS6TImageINS_4CntZEEclEii",
            "__ZNK6LercNS5Lerc210WriteTilesIiEEbPKT_PPhRi",
            "__ZN6LercNS4Lerc14EncodeInternalIsEENS_7ErrCodeEPKT_iiiiiiPKhdRjPhjS8_S7_PKd",
            "__ZN6LercNS5Lerc26DecodeIhEEbPPKhRmPT_Ph",
            "__ZNSt3__116allocator_traitsINS_9allocatorIPN6LercNS21LosslessFPCompression14outBlockBufferEEEE7destroyB8de180100IS5_vEEvRS6_PT_",
            "__ZNSt3__112__debug_lessINS_7greaterIdEEEclB8de180100IiiEEbRT_RT0_",
            "__ZNSt3__112__debug_lessINS0_IRNS0_IRNS_7greaterIdEEEEEEEclB8de180100IhhEEbRT_RT0_",
            "__ZNSt3__116allocator_traitsINS_9allocatorINS_4pairIjjEEEEE8max_sizeB8de180100IS4_vEEmRKS4_",
            "__ZNK6LercNS5Lerc28ReadTileIhEEbPPKhRmPT_iiiiiRNSt3__16vectorIjNS8_9allocatorIjEEEE",
            "__ZN6LercNS5Lerc219ComputeDiffSliceFltIsEEbPKT_S4_ibdRNSt3__16vectorIS2_NS5_9allocatorIS2_EEEERS2_SB_Rb",
            "__ZN6LercNS4Lerc16ReplaceNaNValuesItEEbRNSt3__16vectorIT_NS2_9allocatorIS4_EEEERNS3_IhNS5_IhEEEEiii",
            "__ZNK6LercNS5Lerc29ReadTilesIaEEbPPKhRmPT_",
            "__ZNSt3__112__debug_lessINS0_INS0_IRNS0_IRNS_7greaterIdEEEEEEEEEclB8de180100IhhEEbRT_RT0_",
            "__ZN6LercNS4Lerc11RemapNoDataIjEEbPT_RKNS_7BitMaskERKNS_5Lerc210HeaderInfoE",
            "__ZN6LercNS4Lerc12GetTypeRangeIhEEbT_RNSt3__14pairIddEE",
            "__ZN6LercNS5Lerc29ScaleBackIfEEvPT_RKNSt3__16vectorIjNS4_9allocatorIjEEEEdbbdd",
            "__ZNK6LercNS5Lerc210WriteTilesIhEEbPKT_PPhRi",
            "__ZN6LercNS4Lerc12FilterNoDataIfEENS_7ErrCodeERNSt3__16vectorIT_NS3_9allocatorIS5_EEEERNS4_IhNS6_IhEEEEiiiRdbSD_RbSE_",
            "__ZN6LercNS4Lerc5IsIntIfEEbT_",
            "__ZNK6LercNS5Lerc28QuantizeIfEEvPKT_iS2_RNSt3__16vectorIjNS5_9allocatorIjEEEE",
            "__ZN6LercNS4Lerc5IsIntIhEEbT_",
            "__ZN6LercNS4Lerc11DecodeTemplIdEENS_7ErrCodeEPT_PKhjiiiiiPhS7_Pd",
            "__ZNKSt3__111__move_loopINS_17_ClassicAlgPolicyEEclB8de180100INS_16reverse_iteratorIP9TestBlockEES7_S7_EENS_4pairIT_T1_EES9_T0_SA_",
            "__ZN6LercNS5Lerc214ReduceDataTypeItEEiT_NS0_8DataTypeERS3_",
            "__ZNK6LercNS5Lerc216ReadDataOneSweepIdEEbPPKhRmPT_",
            "__ZNK6LercNS5Lerc222ComputeHistoForHuffmanItEEvPKT_RNSt3__16vectorIiNS5_9allocatorIiEEEESA_",
            "__ZNK6LercNS5Lerc212NumBytesTileIhEEiiT_S2_NS0_8DataTypeEbRNS0_15BlockEncodeModeERKNSt3__16vectorINS6_4pairIjjEENS6_9allocatorIS9_EEEE",
            "__ZN6LercNS5Lerc214CurrentVersionEv",
            "__ZNSt3__116allocator_traitsINS_9allocatorIiEEE7destroyB8de180100IivEEvRS2_PT_",
            "__ZNSt3__19allocatorINS_4pairIijEEE9constructB8de180100IS2_JRKS2_EEEvPT_DpOT0_",
            "__ZN6LercNS4Lerc11RemapNoDataIsEEbPT_RKNS_7BitMaskERKNS_5Lerc210HeaderInfoE",
            "__ZN6LercNS4Lerc18FilterNoDataAndNaNIaEENS_7ErrCodeERNSt3__16vectorIT_NS3_9allocatorIS5_EEEERNS4_IhNS6_IhEEEEiiiRdbSD_RbSE_SE_",
            "__ZNK6LercNS5Lerc222TryBitPlaneCompressionIhEEbPKT_dRd",
            "__ZNK6LercNS5Lerc29WriteTileIsEEbPKT_iPPhRiiS2_S2_NS0_8DataTypeEbRKNSt3__16vectorIjNS9_9allocatorIjEEEENS0_15BlockEncodeModeERKNSA_INS9_4pairIjjEENSB_ISI_EEEE",
            "__ZN6LercNS4Lerc5IsIntItEEbT_",
            "__ZNSt3__112__debug_lessIRNS_7greaterIdEEEclB8de180100IaaEEbRT_RT0_",
            "__ZNSt3__112__debug_lessINS0_INS0_IRNS0_IRNS_7greaterIdEEEEEEEEEclB8de180100IffEEbRT_RT0_",
            "__ZNSt3__16vectorIPN6LercNS21LosslessFPCompression14outBlockBufferENS_9allocatorIS4_EEE21__push_back_slow_pathIRKS4_EEPS4_OT_",
            "__ZN6LercNS7BitMask4BitsEv",
            "__ZNK6LercNS5Lerc29WriteTileIfEEbPKT_iPPhRiiS2_S2_NS0_8DataTypeEbRKNSt3__16vectorIjNS9_9allocatorIjEEEENS0_15BlockEncodeModeERKNSA_INS9_4pairIjjEENSB_ISI_EEEE",
            "__ZN6LercNS5Lerc26DecodeIfEEbPPKhRmPT_Ph",
            "__ZNSt3__112__debug_lessINS0_INS0_IRNS0_IRNS_7greaterIdEEEEEEEEEclB8de180100IssEEbRT_RT0_",
            "__ZNSt3__116allocator_traitsINS_9allocatorINS_4pairIijEEEEE9constructB8de180100IS3_JRKS3_EvEEvRS4_PT_DpOT0_",
            "__ZN6LercNS4Lerc7ConvertIaEEbRKNS_9CntZImageEPT_Phb",
            "__ZNK6LercNS5Lerc213DecodeHuffmanIjEEbPPKhRmPT_",
            "__ZN6LercNS4Lerc18FilterNoDataAndNaNIiEENS_7ErrCodeERNSt3__16vectorIT_NS3_9allocatorIS5_EEEERNS4_IhNS6_IhEEEEiiiRdbSD_RbSE_SE_",
            "__ZN6LercNS5Lerc214ReduceDataTypeIfEEiT_NS0_8DataTypeERS3_",
            "__ZNSt3__116allocator_traitsINS_9allocatorIsEEE7destroyB8de180100IsvEEvRS2_PT_",
            "__ZN6LercNS4Lerc12GetTypeRangeIjEEbT_RNSt3__14pairIddEE",
            "__ZNKSt3__111__move_loopINS_17_ClassicAlgPolicyEEclB8de180100INS_16reverse_iteratorIPfEES6_S6_EENS_4pairIT_T1_EES8_T0_S9_",
            "__ZNKSt3__111__move_loopINS_17_ClassicAlgPolicyEEclB8de180100INS_16reverse_iteratorIPhEES6_S6_EENS_4pairIT_T1_EES8_T0_S9_",
            "__ZN6LercNS5Lerc219ComputeDiffSliceFltItEEbPKT_S4_ibdRNSt3__16vectorIS2_NS5_9allocatorIS2_EEEERS2_SB_Rb",
            "__ZNK6LercNS5Lerc28ReadTileIiEEbPPKhRmPT_iiiiiRNSt3__16vectorIjNS8_9allocatorIjEEEE",
            "__ZNK6LercNS5Image8getWidthEv",
            "__ZNSt3__16vectorIdNS_9allocatorIdEEE18__construct_at_endIPKdS6_EEvT_T0_m",
            "__ZN6LercNS4Lerc14EncodeInternalIhEENS_7ErrCodeEPKT_iiiiiiPKhdRjPhjS8_S7_PKd",
            "__ZNSt3__116allocator_traitsINS_9allocatorIjEEE9constructB8de180100IjJRKjEvEEvRS2_PT_DpOT0_",
            "__ZNSt3__116allocator_traitsINS_9allocatorINS_4pairItjEEEEE7destroyB8de180100IS3_vEEvRS4_PT_",
            "__ZNSt3__19allocatorIfE9constructB8de180100IfJRKfEEEvPT_DpOT0_",
            "__ZNK6LercNS7Huffman8GetCodesEv",
            "__ZNSt3__116allocator_traitsINS_9allocatorINS_4pairIssEEEEE9constructB8de180100IS3_JRKS3_EvEEvRS4_PT_DpOT0_",
            "__ZN6LercNS5Lerc29ScaleBackIhEEvPT_RKNSt3__16vectorIjNS4_9allocatorIjEEEEdbbdd",
            "__ZNSt3__112__debug_lessINS_6__lessIvvEEEclB8de180100IjjEEbRKT_RKT0_",
            "__ZNK6LercNS5Lerc219ComputeHuffmanCodesItEEvPKT_RiRNS0_15ImageEncodeModeERNSt3__16vectorINS8_4pairItjEENS8_9allocatorISB_EEEE",
            "__ZNSt3__16vectorIhNS_9allocatorIhEEE21__push_back_slow_pathIRKhEEPhOT_",
            "__ZNK6LercNS5Lerc214NeedToQuantizeIiEEbiT_S2_",
            "__ZNSt3__16vectorIfNS_9allocatorIfEEE21__push_back_slow_pathIfEEPfOT_",
            "__ZNSt3__116allocator_traitsINS_9allocatorIiEEE9constructB8de180100IiJRKiEvEEvRS2_PT_DpOT0_",
            "__ZNK6LercNS5Image9getHeightEv",
            "__ZN6LercNS4Lerc7ConvertIsEEbRKNS_9CntZImageEPT_Phb",
            "__ZNK6LercNS5Lerc28QuantizeItEEvPKT_iS2_RNSt3__16vectorIjNS5_9allocatorIjEEEE",
            "__ZN6LercNS4Lerc11DecodeTemplIfEENS_7ErrCodeEPT_PKhjiiiiiPhS7_Pd",
            "__ZNSt3__16vectorIdNS_9allocatorIdEEE21__push_back_slow_pathIRKdEEPdOT_",
            "__ZN6LercNS5Lerc215GetDataTypeSizeENS0_8DataTypeE",
            "__ZNSt3__112__debug_lessINS0_INS_7greaterIdEEEEEclB8de180100IssEEbRT_RT0_",
            "__ZNSt3__19allocatorIiE9constructB8de180100IiJEEEvPT_DpOT0_",
            "__ZNK6LercNS5Lerc28ReadTileItEEbPPKhRmPT_iiiiiRNSt3__16vectorIjNS8_9allocatorIjEEEE",
            "__ZN6LercNS5Lerc29ScaleBackItEEvPT_RKNSt3__16vectorIjNS4_9allocatorIjEEEEdbbdd",
            "__ZN6LercNS4Lerc5IsIntIdEEbT_",
            "__ZNK6LercNS5Lerc212NumBytesTileIjEEiiT_S2_NS0_8DataTypeEbRNS0_15BlockEncodeModeERKNSt3__16vectorINS6_4pairIjjEENS6_9allocatorIS9_EEEE",
            "__ZNK6LercNS5Lerc214FillConstImageIfEEbPT_",
            "__ZNK6LercNS5Lerc213EncodeHuffmanIaEEbPKT_PPh",
            "__ZN6LercNS4Lerc11DecodeTemplIsEENS_7ErrCodeEPT_PKhjiiiiiPhS7_Pd",
            "__ZNSt3__19allocatorINS_4pairImiEEE9constructB8de180100IS2_JS2_EEEvPT_DpOT0_",
            "__ZNK6LercNS5Lerc214FillConstImageIjEEbPT_",
            "__ZNK6LercNS7BitMask4SizeEv",
            "__ZNK6LercNS5Lerc212NumBytesTileIfEEiiT_S2_NS0_8DataTypeEbRNS0_15BlockEncodeModeERKNSt3__16vectorINS6_4pairIjjEENS6_9allocatorIS9_EEEE",
            "__ZNK6LercNS5Lerc210HeaderInfo13TryHuffmanFltEv",
            "__ZNK6LercNS5Lerc212NumBytesTileIiEEiiT_S2_NS0_8DataTypeEbRNS0_15BlockEncodeModeERKNSt3__16vectorINS6_4pairIjjEENS6_9allocatorIS9_EEEE",
            "__ZN6LercNS4Lerc12FilterNoDataIdEENS_7ErrCodeERNSt3__16vectorIT_NS3_9allocatorIS5_EEEERNS4_IhNS6_IhEEEEiiiRdbSD_RbSE_",
            "__ZN6LercNS4Lerc17EncodeInternal_v5IdEENS_7ErrCodeEPKT_iiiiiiPKhdRjPhjS8_",
            "__ZNSt3__116allocator_traitsINS_9allocatorIaEEE7destroyB8de180100IavEEvRS2_PT_",
            "__ZN6LercNS4Lerc17EncodeInternal_v5IaEENS_7ErrCodeEPKT_iiiiiiPKhdRjPhjS8_",
            "__ZN6LercNS4Lerc17EncodeInternal_v5IhEENS_7ErrCodeEPKT_iiiiiiPKhdRjPhjS8_",
            "__ZN6LercNS4Lerc14EncodeInternalIaEENS_7ErrCodeEPKT_iiiiiiPKhdRjPhjS8_S7_PKd",
            "__ZN6LercNS5Lerc219ScaleBackConstBlockIiEEvPT_idbd",
            "__ZNK6LercNS5Lerc213EncodeHuffmanIfEEbPKT_PPh",
            "__ZN6LercNS4Lerc20ConvertToDoubleTemplItEENS_7ErrCodeEPKT_mPd",
            "__ZNSt3__116allocator_traitsINS_9allocatorIhEEE9constructB8de180100IhJEvEEvRS2_PT_DpOT0_",
            "__ZN6LercNS5Lerc219ComputeDiffSliceFltIfEEbPKT_S4_ibdRNSt3__16vectorIS2_NS5_9allocatorIS2_EEEERS2_SB_Rb",
            "__ZNSt3__116allocator_traitsINS_9allocatorIhEEE9constructB8de180100IhJhEvEEvRS2_PT_DpOT0_",
            "__ZNSt3__116allocator_traitsINS_9allocatorI9TestBlockEEE7destroyB8de180100IS2_vEEvRS3_PT_",
            "__ZNK6LercNS5Lerc210WriteTilesIaEEbPKT_PPhRi",
            "__ZNSt3__116allocator_traitsINS_9allocatorIaEEE8max_sizeB8de180100IS2_vEEmRKS2_",
            "__ZNSt3__19allocatorINS_4pairItjEEE9constructB8de180100IS2_JS2_EEEvPT_DpOT0_",
            "__ZNK6LercNS5Lerc220GetValidDataAndStatsIiEEbPKT_iiiiiPS2_RS2_S6_RiRb",
            "__ZNK6LercNS5Lerc217WriteDataOneSweepIsEEbPKT_PPh",
            "__ZNSt3__116allocator_traitsINS_9allocatorIdEEE7destroyB8de180100IdvEEvRS2_PT_",
            "__ZN6LercNS4Lerc26ComputeCompressedSizeTemplIiEENS_7ErrCodeEPKT_iiiiiiPKhdRjS7_PKd",
            "__ZNK6LercNS5Lerc216ReadDataOneSweepIjEEbPPKhRmPT_",
            "__ZN6LercNS5Lerc29ScaleBackIjEEvPT_RKNSt3__16vectorIjNS4_9allocatorIjEEEEdbbdd",
            "__ZNSt3__112__debug_lessINS0_IRNS0_IRNS_7greaterIdEEEEEEEclB8de180100IiiEEbRT_RT0_",
            "__ZNK6LercNS5Lerc217WriteMinMaxRangesIdEEbPKT_PPh",
            "__ZNSt3__112__debug_lessINS0_IRNS0_IRNS_7greaterIdEEEEEEE19__do_compare_assertB8de180100IssEEDTcvvclclL_ZNS_7declvalB8de180100IRS6_EEDTclsr3stdE9__declvalIT_ELi0EEEvEEclsr3stdE7declvalIRSB_EEclsr3stdE7declvalIRT0_EEEEiSD_SF_",
            "__ZNSt3__16vectorIiNS_9allocatorIiEEE22__construct_one_at_endB8de180100IJRKiEEEvDpOT_",
            "__ZNK6LercNS5Lerc222TryBitPlaneCompressionIsEEbPKT_dRd",
            "__ZNSt3__16vectorIiNS_9allocatorIiEEE21__push_back_slow_pathIiEEPiOT_",
            "__ZNSt3__112__debug_lessINS_7greaterIdEEEclB8de180100IaaEEbRT_RT0_",
            "__ZNK6LercNS5Lerc219ComputeMinMaxRangesIdEEbPKT_RNSt3__16vectorIdNS5_9allocatorIdEEEESA_",
            "__ZNSt3__16vectorIhNS_9allocatorIhEEE21__push_back_slow_pathIhEEPhOT_",
            "__ZNSt3__112__debug_lessINS0_INS0_IRNS0_IRNS_7greaterIdEEEEEEEEE19__do_compare_assertB8de180100IiiEEDTcvvclclL_ZNS_7declvalB8de180100IRS7_EEDTclsr3stdE9__declvalIT_ELi0EEEvEEclsr3stdE7declvalIRSC_EEclsr3stdE7declvalIRT0_EEEEiSE_SG_",
            "__ZNSt3__19allocatorIiE9constructB8de180100IiJiEEEvPT_DpOT0_",
            "__ZN6LercNS4Lerc11DecodeTemplItEENS_7ErrCodeEPT_PKhjiiiiiPhS7_Pd",
            "__ZNSt3__19allocatorIN6LercNS7Huffman4NodeEE9constructB8de180100IS3_JS3_EEEvPT_DpOT0_",
            "__ZNSt3__111__introsortINS_17_ClassicAlgPolicyERNS_7greaterIdEEPjLb0EEEvT1_S6_T0_NS_15iterator_traitsIS6_E15difference_typeEb",
            "__ZNK6LercNS5Lerc212NumBytesTileIdEEiiT_S2_NS0_8DataTypeEbRNS0_15BlockEncodeModeERKNSt3__16vectorINS6_4pairIjjEENS6_9allocatorIS9_EEEE",
            "__ZN6LercNS5Lerc220IsLittleEndianSystemEv",
            "__ZNKSt3__111__move_loopINS_17_ClassicAlgPolicyEEclB8de180100INS_16reverse_iteratorIPN6LercNS7Huffman4NodeEEES9_S9_EENS_4pairIT_T1_EESB_T0_SC_",
            "__ZNSt3__112__debug_lessIRNS0_IRNS_7greaterIdEEEEEclB8de180100IttEEbRT_RT0_",
            "__ZN6LercNS4Lerc26FindNewNoDataBelowValidMinIdEEbddbdRT_",
            "__ZNSt3__112__debug_lessINS0_IRNS0_IRNS_7greaterIdEEEEEEEclB8de180100IssEEbRT_RT0_",
            "__ZN6LercNS5Lerc216ReadMinMaxRangesIjEEbPPKhRmPKT_",
            "__ZNSt3__112__debug_lessINS_7greaterIdEEEclB8de180100IssEEbRT_RT0_",
            "__ZN6LercNS5Lerc26DecodeIjEEbPPKhRmPT_Ph",
            "__ZNK6LercNS5Lerc214FillConstImageIdEEbPT_",
            "__ZNKSt3__111__move_loopINS_17_ClassicAlgPolicyEEclB8de180100INS_16reverse_iteratorIPtEES6_S6_EENS_4pairIT_T1_EES8_T0_S9_",
            "__ZNSt3__112__debug_lessINS0_IRNS0_IRNS_7greaterIdEEEEEEE19__do_compare_assertB8de180100IddEEDTcvvclclL_ZNS_7declvalB8de180100IRS6_EEDTclsr3stdE9__declvalIT_ELi0EEEvEEclsr3stdE7declvalIRSB_EEclsr3stdE7declvalIRT0_EEEEiSD_SF_",
            "__ZNK6LercNS5Lerc222TryBitPlaneCompressionItEEbPKT_dRd",
            "__ZNK6LercNS5Lerc28QuantizeIdEEvPKT_iS2_RNSt3__16vectorIjNS5_9allocatorIjEEEE",
            "__ZNSt3__111__introsortINS_17_ClassicAlgPolicyERNS_7greaterIdEEPhLb0EEEvT1_S6_T0_NS_15iterator_traitsIS6_E15difference_typeEb",
            "__ZNSt3__116allocator_traitsINS_9allocatorIdEEE8max_sizeB8de180100IS2_vEEmRKS2_",
            "__ZNK6LercNS5Lerc217TryRaiseMaxZErrorIhEEbPKT_Rd",
            "__ZNK6LercNS5Lerc214FillConstImageIaEEbPT_",
            "__ZN6LercNS4Lerc26FindNewNoDataBelowValidMinIaEEbddbdRT_",
            "__ZNSt3__112__debug_lessINS_4lessIN6LercNS7Huffman4NodeEEEEclB8de180100IS4_S4_EEbRT_RT0_",
            "__ZN6LercNS5Lerc211GetDataTypeIiEENS0_8DataTypeET_",
            "__ZNSt3__16vectorINS_4pairItjEENS_9allocatorIS2_EEE18__construct_at_endIPS2_S7_EEvT_T0_m",
            "__ZNSt3__116allocator_traitsINS_9allocatorItEEE8max_sizeB8de180100IS2_vEEmRKS2_",
            "__ZNSt3__111__introsortINS_17_ClassicAlgPolicyERNS_7greaterIdEEPiLb0EEEvT1_S6_T0_NS_15iterator_traitsIS6_E15difference_typeEb",
            "__ZNSt3__116allocator_traitsINS_9allocatorINS_4pairIssEEEEE8max_sizeB8de180100IS4_vEEmRKS4_",
            "__ZN6LercNS5Lerc211GetDataTypeIaEENS0_8DataTypeET_",
            "__ZNK6LercNS7BitMask10SetInvalidEi",
            "__ZNK6LercNS5Lerc28ReadTileIjEEbPPKhRmPT_iiiiiRNSt3__16vectorIjNS8_9allocatorIjEEEE",
            "__ZN6LercNS4Lerc5IsIntIsEEbT_",
            "__ZNK6LercNS5Lerc210WriteTilesIfEEbPKT_PPhRi",
            "__ZNK6LercNS5Lerc219ComputeHuffmanCodesIjEEvPKT_RiRNS0_15ImageEncodeModeERNSt3__16vectorINS8_4pairItjEENS8_9allocatorISB_EEEE",
            "__ZNSt3__112__debug_lessIRNS_7greaterIdEEE19__do_compare_assertB8de180100IttEEDTcvvclclL_ZNS_7declvalB8de180100IS3_EEDTclsr3stdE9__declvalIT_ELi0EEEvEEclsr3stdE7declvalIRS7_EEclsr3stdE7declvalIRT0_EEEEiS9_SB_",
            "__ZN6LercNS4Lerc16ReplaceNaNValuesIaEEbRNSt3__16vectorIT_NS2_9allocatorIS4_EEEERNS3_IhNS5_IhEEEEiii",
            "__ZN6LercNS5Lerc26EncodeIdEEbPKT_PPh",
            "__ZN6LercNS4Lerc20ConvertToDoubleTemplIsEENS_7ErrCodeEPKT_mPd",
            "__ZNSt3__112__debug_lessINS0_IRNS0_IRNS_7greaterIdEEEEEEEclB8de180100IjjEEbRT_RT0_",
            "__ZNSt3__116allocator_traitsINS_9allocatorIsEEE9constructB8de180100IsJRKsEvEEvRS2_PT_DpOT0_",
            "__ZNK6LercNS5Lerc28QuantizeIsEEvPKT_iS2_RNSt3__16vectorIjNS5_9allocatorIjEEEE",
            "__ZN6LercNS4Lerc14EncodeInternalIjEENS_7ErrCodeEPKT_iiiiiiPKhdRjPhjS8_S7_PKd",
            "__ZNK6LercNS5Lerc217TryRaiseMaxZErrorIsEEbPKT_Rd",
            "__ZN6LercNS5Lerc228ComputeNumBytesNeededToWriteIaEEjPKT_db",
            "__ZN6LercNS5Lerc228ComputeNumBytesNeededToWriteItEEjPKT_db",
            "__ZNK6LercNS6TImageINS_4CntZEE7getDataEv",
            "__ZNK6LercNS5Lerc213EncodeHuffmanIhEEbPKT_PPh",
            "__ZNSt3__19allocatorIdE9constructB8de180100IdJdEEEvPT_DpOT0_",
            "__ZN6LercNS5Lerc211GetDataTypeIsEENS0_8DataTypeET_",
            "__ZNK6LercNS5Lerc214NeedToQuantizeIfEEbiT_S2_",
            "__ZN6LercNS4Lerc7ConvertIdEEbRKNS_9CntZImageEPT_Phb",
            "__ZNK6LercNS5Lerc222ComputeHistoForHuffmanIhEEvPKT_RNSt3__16vectorIiNS5_9allocatorIiEEEESA_",
            "__ZNK6LercNS5Lerc29ReadTilesIdEEbPPKhRmPT_",
            "__ZN6LercNS4Lerc11RemapNoDataItEEbPT_RKNS_7BitMaskERKNS_5Lerc210HeaderInfoE",
            "__ZN6LercNS5Lerc26EncodeIjEEbPKT_PPh",
            "__ZN6LercNS4Lerc11EncodeTemplIaEENS_7ErrCodeEPKT_iiiiiiPKhdPhjRjS7_PKd",
            "__ZN6LercNS4Lerc17EncodeInternal_v5IfEENS_7ErrCodeEPKT_iiiiiiPKhdRjPhjS8_",
            "__ZN6LercNS7Huffman4Node8FreeTreeERi",
            "__ZNSt3__112__debug_lessINS0_INS_7greaterIdEEEEE19__do_compare_assertB8de180100IhhEEDTcvvclclL_ZNS_7declvalB8de180100IRS3_EEDTclsr3stdE9__declvalIT_ELi0EEEvEEclsr3stdE7declvalIRS8_EEclsr3stdE7declvalIRT0_EEEEiSA_SC_",
            "__ZNK6LercNS5Lerc217WriteMinMaxRangesIiEEbPKT_PPh",
            "__ZNSt3__116allocator_traitsINS_9allocatorINS_4pairIiPcEEEEE7destroyB8de180100IS4_vEEvRS5_PT_",
            "__ZN6LercNS11BitStuffer210EncodeUIntEPPhji",
            "__ZNSt3__116allocator_traitsINS_9allocatorIsEEE8max_sizeB8de180100IS2_vEEmRKS2_",
            "__ZNSt3__16vectorIsNS_9allocatorIsEEE22__construct_one_at_endB8de180100IJsEEEvDpOT_",
            "__ZNSt3__112__debug_lessINS0_INS_7greaterIdEEEEE19__do_compare_assertB8de180100IffEEDTcvvclclL_ZNS_7declvalB8de180100IRS3_EEDTclsr3stdE9__declvalIT_ELi0EEEvEEclsr3stdE7declvalIRS8_EEclsr3stdE7declvalIRT0_EEEEiSA_SC_",
            "__ZNK6LercNS5Lerc28ReadTileIdEEbPPKhRmPT_iiiiiRNSt3__16vectorIjNS8_9allocatorIjEEEE",
            "__ZN6LercNS4Lerc26ComputeCompressedSizeTemplIsEENS_7ErrCodeEPKT_iiiiiiPKhdRjS7_PKd",
            "__ZNSt3__116allocator_traitsINS_9allocatorItEEE9constructB8de180100ItJtEvEEvRS2_PT_DpOT0_",
            "__ZN6LercNS4Lerc26ComputeCompressedSizeTemplIjEENS_7ErrCodeEPKT_iiiiiiPKhdRjS7_PKd",
            "__ZN6LercNS4Lerc11EncodeTemplIjEENS_7ErrCodeEPKT_iiiiiiPKhdPhjRjS7_PKd",
            "__ZNSt3__19allocatorINS_4pairIjjEEE9constructB8de180100IS2_JS2_EEEvPT_DpOT0_",
            "__ZNK6LercNS5Lerc29ReadTilesItEEbPPKhRmPT_",
            "__ZNSt3__16vectorIiNS_9allocatorIiEEE21__push_back_slow_pathIRKiEEPiOT_",
            "__ZNSt3__112__debug_lessIRNS0_IRNS_7greaterIdEEEEEclB8de180100IhhEEbRT_RT0_",
            "__ZNSt3__114__split_bufferIjRNS_9allocatorIjEEE18__construct_at_endINS_13move_iteratorIPjEELi0EEEvT_S9_",
            "__ZNSt3__16vectorIhNS_9allocatorIhEEE6assignIPhLi0EEEvT_S6_",
            "__ZNSt3__112__debug_lessINS_7greaterIdEEEclB8de180100IjjEEbRT_RT0_",
            "__ZNSt3__116allocator_traitsINS_9allocatorIfEEE9constructB8de180100IfJfEvEEvRS2_PT_DpOT0_",
            "__ZNK6LercNS5Lerc219ComputeMinMaxRangesIsEEbPKT_RNSt3__16vectorIdNS5_9allocatorIdEEEESA_",
            "__ZN6LercNS4Lerc11EncodeTemplIfEENS_7ErrCodeEPKT_iiiiiiPKhdPhjRjS7_PKd",
            "__ZNK6LercNS5Lerc213EncodeHuffmanItEEbPKT_PPh",
            "__ZN6LercNS5Lerc219ScaleBackConstBlockIdEEvPT_idbd",
            "__ZN6LercNS11BitStuffer212NumBytesUIntEj",
            "__ZNSt3__16vectorINS_4pairItjEENS_9allocatorIS2_EEE18__assign_with_sizeB8de180100IPS2_S7_EEvT_T0_l",
            "__ZNK6LercNS5Lerc219ComputeMinMaxRangesIfEEbPKT_RNSt3__16vectorIdNS5_9allocatorIdEEEESA_",
            "__ZNSt3__112__debug_lessINS0_INS0_IRNS0_IRNS_7greaterIdEEEEEEEEE19__do_compare_assertB8de180100IddEEDTcvvclclL_ZNS_7declvalB8de180100IRS7_EEDTclsr3stdE9__declvalIT_ELi0EEEvEEclsr3stdE7declvalIRSC_EEclsr3stdE7declvalIRT0_EEEEiSE_SG_",
            "__ZNK6LercNS5Lerc213EncodeHuffmanIdEEbPKT_PPh",
            "__ZNSt3__116allocator_traitsINS_9allocatorINS_4pairImiEEEEE7destroyB8de180100IS3_vEEvRS4_PT_",
            "__ZNSt3__116allocator_traitsINS_9allocatorIdEEE9constructB8de180100IdJdEvEEvRS2_PT_DpOT0_",
            "__ZN6LercNS4Lerc26ComputeCompressedSizeTemplIaEENS_7ErrCodeEPKT_iiiiiiPKhdRjS7_PKd",
            "__ZNSt3__112__debug_lessINS0_INS0_IRNS0_IRNS_7greaterIdEEEEEEEEE19__do_compare_assertB8de180100IssEEDTcvvclclL_ZNS_7declvalB8de180100IRS7_EEDTclsr3stdE9__declvalIT_ELi0EEEvEEclsr3stdE7declvalIRSC_EEclsr3stdE7declvalIRT0_EEEEiSE_SG_",
            "__ZNSt3__19allocatorIjE9constructB8de180100IjJjEEEvPT_DpOT0_",
            "__ZNSt3__111__introsortINS_17_ClassicAlgPolicyERNS_7greaterIdEEPaLb0EEEvT1_S6_T0_NS_15iterator_traitsIS6_E15difference_typeEb",
            "__ZNK6LercNS7BitMask7IsValidEi",
            "__ZNK6LercNS5Lerc29ReadTilesIsEEbPPKhRmPT_",
            "__ZNKSt3__111__move_loopINS_17_ClassicAlgPolicyEEclB8de180100INS_16reverse_iteratorIPaEES6_S6_EENS_4pairIT_T1_EES8_T0_S9_",
            "__ZN6LercNS4Lerc7ConvertItEEbRKNS_9CntZImageEPT_Phb",
            "__ZNSt3__112__debug_lessIRNS_7greaterIdEEEclB8de180100IssEEbRT_RT0_",
            "__ZNK6LercNS5Image7getSizeEv",
            "__ZNSt3__116allocator_traitsINS_9allocatorIiEEE9constructB8de180100IiJEvEEvRS2_PT_DpOT0_",
            "__ZNK6LercNS5Lerc217WriteMinMaxRangesIfEEbPKT_PPh",
            "__ZNK6LercNS5Lerc29WriteTileIdEEbPKT_iPPhRiiS2_S2_NS0_8DataTypeEbRKNSt3__16vectorIjNS9_9allocatorIjEEEENS0_15BlockEncodeModeERKNSA_INS9_4pairIjjEENSB_ISI_EEEE",
            "__ZNK6LercNS5Lerc219ComputeMinMaxRangesIjEEbPKT_RNSt3__16vectorIdNS5_9allocatorIdEEEESA_",
            "__ZN6LercNS4Lerc26FindNewNoDataBelowValidMinIiEEbddbdRT_",
            "__ZNSt3__16vectorINS_4pairIiPcEENS_9allocatorIS3_EEE21__push_back_slow_pathIS3_EEPS3_OT_",
            "__ZNSt3__112__debug_lessIRNS_7greaterIdEEE19__do_compare_assertB8de180100IjjEEDTcvvclclL_ZNS_7declvalB8de180100IS3_EEDTclsr3stdE9__declvalIT_ELi0EEEvEEclsr3stdE7declvalIRS7_EEclsr3stdE7declvalIRT0_EEEEiS9_SB_",
            "__ZNSt3__19allocatorIiE9constructB8de180100IiJRKiEEEvPT_DpOT0_",
            "__ZNK6LercNS5Lerc220GetValidDataAndStatsItEEbPKT_iiiiiPS2_RS2_S6_RiRb",
            "__ZN6LercNS5Lerc29ScaleBackIaEEvPT_RKNSt3__16vectorIjNS4_9allocatorIjEEEEdbbdd",
            "__ZN6LercNS4Lerc5IsIntIaEEbT_",
            "__ZNK6LercNS5Lerc219ComputeHuffmanCodesIhEEvPKT_RiRNS0_15ImageEncodeModeERNSt3__16vectorINS8_4pairItjEENS8_9allocatorISB_EEEE",
            "__ZNSt3__116allocator_traitsINS_9allocatorIaEEE9constructB8de180100IaJEvEEvRS2_PT_DpOT0_",
            "__ZNSt3__116allocator_traitsINS_9allocatorINS_4pairIijEEEEE8max_sizeB8de180100IS4_vEEmRKS4_",
            "__ZNSt3__112__debug_lessIRNS0_IRNS_7greaterIdEEEEE19__do_compare_assertB8de180100IttEEDTcvvclclL_ZNS_7declvalB8de180100IS5_EEDTclsr3stdE9__declvalIT_ELi0EEEvEEclsr3stdE7declvalIRS9_EEclsr3stdE7declvalIRT0_EEEEiSB_SD_",
            "__ZNSt3__116allocator_traitsINS_9allocatorIhEEE8max_sizeB8de180100IS2_vEEmRKS2_",
            "__ZN6LercNS4Lerc11CheckForNaNIhEENS_7ErrCodeEPKT_iiiPKh",
            "__ZNK6LercNS5Lerc214NeedToQuantizeIhEEbiT_S2_",
            "__ZNK6LercNS5Lerc213DecodeHuffmanIhEEbPPKhRmPT_",
            "__ZNSt3__116allocator_traitsINS_9allocatorIfEEE9constructB8de180100IfJRKfEvEEvRS2_PT_DpOT0_",
            "__ZNSt3__116allocator_traitsINS_9allocatorIN6LercNS7Huffman4NodeEEEE9constructB8de180100IS4_JS4_EvEEvRS5_PT_DpOT0_",
            "__ZN6LercNS5Lerc219GetMaxValToQuantizeENS0_8DataTypeE",
            "__ZNSt3__112__debug_lessIRNS_7greaterIdEEE19__do_compare_assertB8de180100IffEEDTcvvclclL_ZNS_7declvalB8de180100IS3_EEDTclsr3stdE9__declvalIT_ELi0EEEvEEclsr3stdE7declvalIRS7_EEclsr3stdE7declvalIRT0_EEEEiS9_SB_",
            "__ZNSt3__16vectorIPN6LercNS21LosslessFPCompression14outBlockBufferENS_9allocatorIS4_EEE22__construct_one_at_endB8de180100IJRKS4_EEEvDpOT_",
            "__ZNSt3__19allocatorINS_4pairIiPcEEE9constructB8de180100IS3_JS3_EEEvPT_DpOT0_",
            "__ZNSt3__19allocatorIaE9constructB8de180100IaJRKaEEEvPT_DpOT0_",
            "__ZNKSt3__111__move_loopINS_17_ClassicAlgPolicyEEclB8de180100INS_16reverse_iteratorIPsEES6_S6_EENS_4pairIT_T1_EES8_T0_S9_",
            "__ZNSt3__112__debug_lessIRNS0_IRNS_7greaterIdEEEEE19__do_compare_assertB8de180100IjjEEDTcvvclclL_ZNS_7declvalB8de180100IS5_EEDTclsr3stdE9__declvalIT_ELi0EEEvEEclsr3stdE7declvalIRS9_EEclsr3stdE7declvalIRT0_EEEEiSB_SD_",
            "__ZNK6LercNS5Lerc222TryBitPlaneCompressionIjEEbPKT_dRd",
            "__ZNSt3__112__debug_lessINS0_INS_7greaterIdEEEEE19__do_compare_assertB8de180100IaaEEDTcvvclclL_ZNS_7declvalB8de180100IRS3_EEDTclsr3stdE9__declvalIT_ELi0EEEvEEclsr3stdE7declvalIRS8_EEclsr3stdE7declvalIRT0_EEEEiSA_SC_",
            "__ZNK6LercNS5Lerc222ComputeHistoForHuffmanIjEEvPKT_RNSt3__16vectorIiNS5_9allocatorIiEEEESA_",
            "__ZNSt3__112__debug_lessIRNS_7greaterIdEEEclB8de180100IiiEEbRT_RT0_",
            "__ZNK6LercNS5Lerc213EncodeHuffmanIjEEbPKT_PPh",
            "__ZNSt3__16vectorIhNS_9allocatorIhEEE18__assign_with_sizeB8de180100IPhS5_EEvT_T0_l",
            "__ZN6LercNS5Lerc213ComputeMaxValEddd",
            "__ZN6LercNS4Lerc11RemapNoDataIfEEbPT_RKNS_7BitMaskERKNS_5Lerc210HeaderInfoE",
            "__ZNSt3__112__debug_lessIRNS_7greaterIdEEEclB8de180100IddEEbRT_RT0_",
            "__ZN6LercNS4Lerc12GetTypeRangeIiEEbT_RNSt3__14pairIddEE",
            "__ZNK6LercNS5Lerc222TryBitPlaneCompressionIdEEbPKT_dRd",
            "__ZNSt3__112__debug_lessINS_7greaterIdEEE19__do_compare_assertB8de180100IssEEDTcvvclclL_ZNS_7declvalB8de180100IRS2_EEDTclsr3stdE9__declvalIT_ELi0EEEvEEclsr3stdE7declvalIRS7_EEclsr3stdE7declvalIRT0_EEEEiS9_SB_",
            "__ZN6LercNS4Lerc11DecodeTemplIjEENS_7ErrCodeEPT_PKhjiiiiiPhS7_Pd",
            "__ZNSt3__112__debug_lessIRNS0_IRNS_7greaterIdEEEEEclB8de180100IssEEbRT_RT0_",
            "__ZNK6LercNS5Lerc28ReadTileIfEEbPPKhRmPT_iiiiiRNSt3__16vectorIjNS8_9allocatorIjEEEE",
            "__ZNK6LercNS5Lerc29WriteTileIhEEbPKT_iPPhRiiS2_S2_NS0_8DataTypeEbRKNSt3__16vectorIjNS9_9allocatorIjEEEENS0_15BlockEncodeModeERKNSA_INS9_4pairIjjEENSB_ISI_EEEE",
            "__ZN6LercNS4Lerc16ReplaceNaNValuesIjEEbRNSt3__16vectorIT_NS2_9allocatorIS4_EEEERNS3_IhNS5_IhEEEEiii",
            "__ZNK6LercNS5Lerc210WriteTilesIsEEbPKT_PPhRi",
            "__ZNSt3__112__debug_lessINS0_INS0_IRNS0_IRNS_7greaterIdEEEEEEEEE19__do_compare_assertB8de180100IhhEEDTcvvclclL_ZNS_7declvalB8de180100IRS7_EEDTclsr3stdE9__declvalIT_ELi0EEEvEEclsr3stdE7declvalIRSC_EEclsr3stdE7declvalIRT0_EEEEiSE_SG_",
            "__ZNSt3__112__debug_lessIRNS0_IRNS_7greaterIdEEEEEclB8de180100IjjEEbRT_RT0_",
            "__ZNSt3__112__debug_lessINS0_INS_7greaterIdEEEEEclB8de180100IhhEEbRT_RT0_",
            "__ZNSt3__112__debug_lessINS_7greaterIdEEE19__do_compare_assertB8de180100IiiEEDTcvvclclL_ZNS_7declvalB8de180100IRS2_EEDTclsr3stdE9__declvalIT_ELi0EEEvEEclsr3stdE7declvalIRS7_EEclsr3stdE7declvalIRT0_EEEEiS9_SB_",
            "__ZNSt3__112__debug_lessINS0_IRNS0_IRNS_7greaterIdEEEEEEEclB8de180100IffEEbRT_RT0_",
            "__ZNSt3__116allocator_traitsINS_9allocatorI9TestBlockEEE9constructB8de180100IS2_JRKS2_EvEEvRS3_PT_DpOT0_",
            "__ZNSt3__16vectorI9TestBlockNS_9allocatorIS1_EEE21__push_back_slow_pathIRKS1_EEPS1_OT_",
            "__ZN6LercNS4Lerc20ConvertToDoubleTemplIhEENS_7ErrCodeEPKT_mPd",
            "__ZN6LercNS4Lerc11EncodeTemplIdEENS_7ErrCodeEPKT_iiiiiiPKhdPhjRjS7_PKd",
            "__ZN6LercNS5Lerc214AddIntToCountsEPiii",
            "__ZNSt3__19allocatorIsE9constructB8de180100IsJsEEEvPT_DpOT0_",
            "__ZNSt3__112__debug_lessINS0_INS0_IRNS0_IRNS_7greaterIdEEEEEEEEEclB8de180100IjjEEbRT_RT0_",
            "__ZN6LercNS4Lerc18FilterNoDataAndNaNIfEENS_7ErrCodeERNSt3__16vectorIT_NS3_9allocatorIS5_EEEERNS4_IhNS6_IhEEEEiiiRdbSD_RbSE_SE_",
            "__ZN6LercNS4Lerc17EncodeInternal_v5IsEENS_7ErrCodeEPKT_iiiiiiPKhdRjPhjS8_",
            "__ZNSt3__112__debug_lessIRNS_7greaterIdEEE19__do_compare_assertB8de180100IhhEEDTcvvclclL_ZNS_7declvalB8de180100IS3_EEDTclsr3stdE9__declvalIT_ELi0EEEvEEclsr3stdE7declvalIRS7_EEclsr3stdE7declvalIRT0_EEEEiS9_SB_",
            "__ZNSt3__116allocator_traitsINS_9allocatorIjEEE8max_sizeB8de180100IS2_vEEmRKS2_",
            "__ZNSt3__116allocator_traitsINS_9allocatorINS_4pairIiPcEEEEE8max_sizeB8de180100IS5_vEEmRKS5_",
            "__ZN6LercNS4Lerc17EncodeInternal_v5IjEENS_7ErrCodeEPKT_iiiiiiPKhdRjPhjS8_",
            "__ZNSt3__116allocator_traitsINS_9allocatorIdEEE9constructB8de180100IdJRKdEvEEvRS2_PT_DpOT0_",
            "__ZNK6LercNS5Lerc210WriteTilesItEEbPKT_PPhRi",
            "__ZN6LercNS4Lerc6ResizeIdEEbRNSt3__16vectorIT_NS2_9allocatorIS4_EEEEm",
            "__ZNSt3__16vectorIN6LercNS7Huffman4NodeENS_9allocatorIS3_EEE21__push_back_slow_pathIS3_EEPS3_OT_",
            "__ZNK6LercNS5Lerc222ComputeHistoForHuffmanIaEEvPKT_RNSt3__16vectorIiNS5_9allocatorIiEEEESA_",
            "__ZN6LercNS4Lerc14EncodeInternalItEENS_7ErrCodeEPKT_iiiiiiPKhdRjPhjS8_S7_PKd",
            "__ZN6LercNS4Lerc6ResizeItEEbRNSt3__16vectorIT_NS2_9allocatorIS4_EEEEm",
            "__ZN6LercNS4Lerc18FilterNoDataAndNaNIsEENS_7ErrCodeERNSt3__16vectorIT_NS3_9allocatorIS5_EEEERNS4_IhNS6_IhEEEEiiiRdbSD_RbSE_SE_",
            "__ZNSt3__16vectorItNS_9allocatorItEEE21__push_back_slow_pathItEEPtOT_",
            "__ZNSt3__112__debug_lessIRNS0_IRNS_7greaterIdEEEEEclB8de180100IffEEbRT_RT0_",
            "__ZN6LercNS4Lerc11EncodeTemplItEENS_7ErrCodeEPKT_iiiiiiPKhdPhjRjS7_PKd",
            "__ZN6LercNS5Lerc26EncodeIfEEbPKT_PPh",
            "__ZNK6LercNS5Lerc217TryRaiseMaxZErrorIiEEbPKT_Rd",
            "__ZNK6LercNS5Lerc213DecodeHuffmanIsEEbPPKhRmPT_",
            "__ZN6LercNS5Lerc225NeedToCheckForIntOverflowERKNS0_10HeaderInfoE",
            "__ZNSt3__112__debug_lessINS0_INS0_IRNS0_IRNS_7greaterIdEEEEEEEEEclB8de180100IiiEEbRT_RT0_",
            "__ZNSt3__112__debug_lessINS0_IRNS0_IRNS_7greaterIdEEEEEEEclB8de180100IaaEEbRT_RT0_",
            "__ZNK6LercNS5Lerc220GetValidDataAndStatsIfEEbPKT_iiiiiPS2_RS2_S6_RiRb",
            "__ZNSt3__16vectorIdNS_9allocatorIdEEE22__construct_one_at_endB8de180100IJRKdEEEvDpOT_",
            "__ZN6LercNS4Lerc7ConvertIiEEbRKNS_9CntZImageEPT_Phb",
            "__ZN6LercNS4Lerc26ComputeCompressedSizeTemplIfEENS_7ErrCodeEPKT_iiiiiiPKhdRjS7_PKd",
            "__ZNSt3__19allocatorIsE9constructB8de180100IsJEEEvPT_DpOT0_",
            "__ZNK6LercNS5Lerc217TryRaiseMaxZErrorIjEEbPKT_Rd",
            "__ZN6LercNS7BitMask3BitEi",
            "__ZN6LercNS5Lerc26EncodeIsEEbPKT_PPh",
            "__ZN6LercNS6TImageINS_4CntZEE7getDataEv",
            "__ZN6LercNS4Lerc11RemapNoDataIhEEbPT_RKNS_7BitMaskERKNS_5Lerc210HeaderInfoE",
            "__ZN6LercNS7Huffman9PushValueEPPhRiji",
            "__ZN6LercNS4Lerc26ComputeCompressedSizeTemplIhEENS_7ErrCodeEPKT_iiiiiiPKhdRjS7_PKd",
            "__ZNSt3__19allocatorIfE9constructB8de180100IfJfEEEvPT_DpOT0_",
            "__ZN6LercNS4Lerc26FindNewNoDataBelowValidMinItEEbddbdRT_",
            "__ZNK6LercNS5Lerc28QuantizeIjEEvPKT_iS2_RNSt3__16vectorIjNS5_9allocatorIjEEEE",
            "__ZNK6LercNS5Lerc28QuantizeIhEEvPKT_iS2_RNSt3__16vectorIjNS5_9allocatorIjEEEE",
            "__ZNSt3__116allocator_traitsINS_9allocatorINS_4pairItjEEEEE9constructB8de180100IS3_JRS3_EvEEvRS4_PT_DpOT0_",
            "__ZNK6LercNS5Lerc220GetValidDataAndStatsIjEEbPKT_iiiiiPS2_RS2_S6_RiRb",
            "__ZNSt3__16vectorINS_4pairIiPcEENS_9allocatorIS3_EEE22__construct_one_at_endB8de180100IJS3_EEEvDpOT_",
            "__ZNSt3__16vectorItNS_9allocatorItEEE22__construct_one_at_endB8de180100IJtEEEvDpOT_",
            "__ZNSt3__116allocator_traitsINS_9allocatorINS_4pairIijEEEEE7destroyB8de180100IS3_vEEvRS4_PT_",
            "__ZNK6LercNS5Lerc213EncodeHuffmanIiEEbPKT_PPh",
            "__ZNSt3__112__debug_lessIRNS_7greaterIdEEEclB8de180100IttEEbRT_RT0_",
            "__ZNSt3__116allocator_traitsINS_9allocatorIPN6LercNS21LosslessFPCompression14outBlockBufferEEEE9constructB8de180100IS5_JRKS5_EvEEvRS6_PT_DpOT0_",
            "__ZN6LercNS4Lerc16ReplaceNaNValuesIfEEbRNSt3__16vectorIT_NS2_9allocatorIS4_EEEERNS3_IhNS5_IhEEEEiii",
            "__ZNK6LercNS5Lerc217TryRaiseMaxZErrorIfEEbPKT_Rd",
            "__ZNSt3__112__debug_lessINS0_INS0_IRNS0_IRNS_7greaterIdEEEEEEEEEclB8de180100IttEEbRT_RT0_",
            "__ZN6LercNS4Lerc18FilterNoDataAndNaNIjEENS_7ErrCodeERNSt3__16vectorIT_NS3_9allocatorIS5_EEEERNS4_IhNS6_IhEEEEiiiRdbSD_RbSE_SE_",
            "__ZNSt3__112__debug_lessINS0_INS0_IRNS0_IRNS_7greaterIdEEEEEEEEE19__do_compare_assertB8de180100IffEEDTcvvclclL_ZNS_7declvalB8de180100IRS7_EEDTclsr3stdE9__declvalIT_ELi0EEEvEEclsr3stdE7declvalIRSC_EEclsr3stdE7declvalIRT0_EEEEiSE_SG_",
            "__ZN6LercNS5Lerc219ScaleBackConstBlockIaEEvPT_idbd",
            "__ZNSt3__16vectorIaNS_9allocatorIaEEE21__push_back_slow_pathIaEEPaOT_",
            "__ZNSt3__19allocatorINS_4pairItjEEE9constructB8de180100IS2_JEEEvPT_DpOT0_",
            "__ZN6LercNS4Lerc5IsIntIjEEbT_",
            "__ZNK6LercNS5Lerc213DecodeHuffmanItEEbPPKhRmPT_",
            "__ZNSt3__19allocatorIPN6LercNS21LosslessFPCompression14outBlockBufferEE9constructB8de180100IS4_JRKS4_EEEvPT_DpOT0_",
            "__ZNK6LercNS7Huffman4NodeltERKS1_",
            "__ZN6LercNS4Lerc11DecodeTemplIhEENS_7ErrCodeEPT_PKhjiiiiiPhS7_Pd",
            "__ZNSt3__112__debug_lessINS0_INS0_IRNS0_IRNS_7greaterIdEEEEEEEEE19__do_compare_assertB8de180100IttEEDTcvvclclL_ZNS_7declvalB8de180100IRS7_EEDTclsr3stdE9__declvalIT_ELi0EEEvEEclsr3stdE7declvalIRSC_EEclsr3stdE7declvalIRT0_EEEEiSE_SG_",
            "__ZN6LercNS5Lerc219ScaleBackConstBlockIfEEvPT_idbd",
            "__ZNSt3__112__debug_lessIRNS0_IRNS_7greaterIdEEEEEclB8de180100IiiEEbRT_RT0_",
            "__ZNSt3__16vectorIaNS_9allocatorIaEEE22__construct_one_at_endB8de180100IJaEEEvDpOT_",
            "__ZNK6LercNS5Lerc216ReadDataOneSweepIhEEbPPKhRmPT_",
            "__ZN6LercNS4Lerc5IsIntIiEEbT_",
            "__ZN6LercNS5Lerc228ComputeNumBytesNeededToWriteIsEEjPKT_db",
            "__ZNSt3__116allocator_traitsINS_9allocatorINS_4pairItjEEEEE9constructB8de180100IS3_JEvEEvRS4_PT_DpOT0_",
            "__ZNK6LercNS5Lerc220GetValidDataAndStatsIhEEbPKT_iiiiiPS2_RS2_S6_RiRb",
            "__ZN6LercNS4Lerc16ReplaceNaNValuesIdEEbRNSt3__16vectorIT_NS2_9allocatorIS4_EEEERNS3_IhNS5_IhEEEEiii",
            "__ZN6LercNS4Lerc16ReplaceNaNValuesIhEEbRNSt3__16vectorIT_NS2_9allocatorIS4_EEEERNS3_IhNS5_IhEEEEiii",
            "__ZNK6LercNS5Lerc222TryBitPlaneCompressionIfEEbPKT_dRd",
            "__ZN6LercNS5Lerc216ValidateDataTypeEi",
            "__ZNSt3__112__debug_lessINS_7greaterIdEEE19__do_compare_assertB8de180100IffEEDTcvvclclL_ZNS_7declvalB8de180100IRS2_EEDTclsr3stdE9__declvalIT_ELi0EEEvEEclsr3stdE7declvalIRS7_EEclsr3stdE7declvalIRT0_EEEEiS9_SB_",
            "__ZN6LercNS4Lerc26FindNewNoDataBelowValidMinIjEEbddbdRT_",
            "__ZN6LercNS4Lerc6ResizeIjEEbRNSt3__16vectorIT_NS2_9allocatorIS4_EEEEm",
            "__ZN6LercNS5Lerc214ReduceDataTypeIdEEiT_NS0_8DataTypeERS3_",
            "__ZN6LercNS5Lerc216ReadMinMaxRangesIdEEbPPKhRmPKT_",
            "__ZNSt3__116allocator_traitsINS_9allocatorIN6LercNS7Huffman4NodeEEEE7destroyB8de180100IS4_vEEvRS5_PT_",
            "__ZN6LercNS5Lerc216ReadMinMaxRangesIiEEbPPKhRmPKT_",
            "__ZNSt3__116allocator_traitsINS_9allocatorIhEEE7destroyB8de180100IhvEEvRS2_PT_",
            "__ZN6LercNS4Lerc11EncodeTemplIhEENS_7ErrCodeEPKT_iiiiiiPKhdPhjRjS7_PKd",
            "__ZNK6LercNS5Lerc212NumBytesTileIaEEiiT_S2_NS0_8DataTypeEbRNS0_15BlockEncodeModeERKNSt3__16vectorINS6_4pairIjjEENS6_9allocatorIS9_EEEE",
            "__ZNSt3__112__debug_lessINS0_INS_7greaterIdEEEEEclB8de180100IffEEbRT_RT0_",
            "__ZN6LercNS5Lerc228ComputeNumBytesNeededToWriteIfEEjPKT_db",
            "__ZNK6LercNS5Lerc29WriteTileIiEEbPKT_iPPhRiiS2_S2_NS0_8DataTypeEbRKNSt3__16vectorIjNS9_9allocatorIjEEEENS0_15BlockEncodeModeERKNSA_INS9_4pairIjjEENSB_ISI_EEEE",
            "__ZN6LercNS5Lerc228ComputeNumBytesNeededToWriteIjEEjPKT_db",
            "__ZNSt3__112__debug_lessINS_7greaterIdEEEclB8de180100IddEEbRT_RT0_",
            "__ZNSt3__19allocatorIaE9constructB8de180100IaJEEEvPT_DpOT0_",
            "__ZNSt3__112__debug_lessINS0_INS_7greaterIdEEEEEclB8de180100IddEEbRT_RT0_",
            "__ZN6LercNS4Lerc11CheckForNaNIiEENS_7ErrCodeEPKT_iiiPKh",
            "__ZNSt3__112__debug_lessINS_7greaterIdEEE19__do_compare_assertB8de180100IhhEEDTcvvclclL_ZNS_7declvalB8de180100IRS2_EEDTclsr3stdE9__declvalIT_ELi0EEEvEEclsr3stdE7declvalIRS7_EEclsr3stdE7declvalIRT0_EEEEiS9_SB_",
            "__ZNSt3__116allocator_traitsINS_9allocatorINS_4pairIssEEEEE7destroyB8de180100IS3_vEEvRS4_PT_",
            "__ZNSt3__112__debug_lessINS_6__lessIvvEEE19__do_compare_assertB8de180100IKjS5_EEDTcvvclclL_ZNS_7declvalB8de180100IRS2_EEDTclsr3stdE9__declvalIT_ELi0EEEvEEclsr3stdE7declvalIRS8_EEclsr3stdE7declvalIRT0_EEEEiSA_SC_",
            "__ZN6LercNS4Lerc26FindNewNoDataBelowValidMinIhEEbddbdRT_",
            "__ZNK6LercNS5Lerc220GetValidDataAndStatsIaEEbPKT_iiiiiPS2_RS2_S6_RiRb",
            "__ZN6LercNS11BitStuffer221NumTailBytesNotNeededEji",
            "__ZNK6LercNS5Lerc217CheckMinMaxRangesERb",
            "__ZN6LercNS5Lerc211GetDataTypeItEENS0_8DataTypeET_",
            "__ZNSt3__112__debug_lessIRNS_7greaterIdEEE19__do_compare_assertB8de180100IiiEEDTcvvclclL_ZNS_7declvalB8de180100IS3_EEDTclsr3stdE9__declvalIT_ELi0EEEvEEclsr3stdE7declvalIRS7_EEclsr3stdE7declvalIRT0_EEEEiS9_SB_",
            "__ZN6LercNS4Lerc14EncodeInternalIiEENS_7ErrCodeEPKT_iiiiiiPKhdRjPhjS8_S7_PKd",
            "__ZNK6LercNS7BitMask4BitsEv",
            "__ZNSt3__19allocatorINS_4pairItjEEE9constructB8de180100IS2_JRS2_EEEvPT_DpOT0_",
            "__ZNK6LercNS5Lerc214FillConstImageIhEEbPT_",
            "__ZNK6LercNS5Lerc212NumBytesTileItEEiiT_S2_NS0_8DataTypeEbRNS0_15BlockEncodeModeERKNSt3__16vectorINS6_4pairIjjEENS6_9allocatorIS9_EEEE",
            "__ZN6LercNS4Lerc8LercInfo7RawInitEv",
            "__ZN6LercNS5Lerc219ScaleBackConstBlockIjEEvPT_idbd",
            "__ZNK6LercNS5Lerc214NeedToQuantizeIjEEbiT_S2_",
            "__ZNSt3__112__debug_lessINS0_IRNS0_IRNS_7greaterIdEEEEEEE19__do_compare_assertB8de180100IjjEEDTcvvclclL_ZNS_7declvalB8de180100IRS6_EEDTclsr3stdE9__declvalIT_ELi0EEEvEEclsr3stdE7declvalIRSB_EEclsr3stdE7declvalIRT0_EEEEiSD_SF_",
            "__ZN6LercNS5Lerc219ComputeDiffSliceFltIjEEbPKT_S4_ibdRNSt3__16vectorIS2_NS5_9allocatorIS2_EEEERS2_SB_Rb",
            "__ZNSt3__116allocator_traitsINS_9allocatorINS_4pairIjjEEEEE9constructB8de180100IS3_JEvEEvRS4_PT_DpOT0_",
            "__ZNSt3__112__debug_lessINS0_IRNS0_IRNS_7greaterIdEEEEEEE19__do_compare_assertB8de180100IiiEEDTcvvclclL_ZNS_7declvalB8de180100IRS6_EEDTclsr3stdE9__declvalIT_ELi0EEEvEEclsr3stdE7declvalIRSB_EEclsr3stdE7declvalIRT0_EEEEiSD_SF_",
            "__ZNSt3__116allocator_traitsINS_9allocatorIdEEE9constructB8de180100IdJEvEEvRS2_PT_DpOT0_",
            "__ZN6LercNS4Lerc11CheckForNaNIdEENS_7ErrCodeEPKT_iiiPKh",
            "__ZN6LercNS5Lerc219ComputeDiffSliceIntIsEEbPKT_S4_ibdRNSt3__16vectorIiNS5_9allocatorIiEEEERiSB_Rb",
            "__ZN6LercNS5Lerc215GetDataTypeUsedENS0_8DataTypeEi",
            "__ZNSt3__16vectorIjNS_9allocatorIjEEE22__construct_one_at_endB8de180100IJjEEEvDpOT_",
            "__ZNSt3__112__debug_lessINS_7greaterIdEEE19__do_compare_assertB8de180100IaaEEDTcvvclclL_ZNS_7declvalB8de180100IRS2_EEDTclsr3stdE9__declvalIT_ELi0EEEvEEclsr3stdE7declvalIRS7_EEclsr3stdE7declvalIRT0_EEEEiS9_SB_",
            "__ZNK6LercNS5Lerc214NeedToQuantizeItEEbiT_S2_",
            "__ZNK6LercNS5Lerc28ReadTileIsEEbPPKhRmPT_iiiiiRNSt3__16vectorIjNS8_9allocatorIjEEEE",
            "__ZN6LercNS4Lerc11EncodeTemplIsEENS_7ErrCodeEPKT_iiiiiiPKhdPhjRjS7_PKd",
            "__ZNK6LercNS7BitMask8GetWidthEv",
            "__ZNK6LercNS5Lerc213EncodeHuffmanIsEEbPKT_PPh",
            "__ZNSt3__112__debug_lessINS0_INS_7greaterIdEEEEE19__do_compare_assertB8de180100IssEEDTcvvclclL_ZNS_7declvalB8de180100IRS3_EEDTclsr3stdE9__declvalIT_ELi0EEEvEEclsr3stdE7declvalIRS8_EEclsr3stdE7declvalIRT0_EEEEiSA_SC_",
            "__ZN6LercNS5Lerc26EncodeIhEEbPKT_PPh",
            "__ZNK6LercNS5Lerc219ComputeMinMaxRangesItEEbPKT_RNSt3__16vectorIdNS5_9allocatorIdEEEESA_",
            "__ZN6LercNS5Lerc29ScaleBackIiEEvPT_RKNSt3__16vectorIjNS4_9allocatorIjEEEEdbbdd",
            "__ZN6LercNS5Lerc214ReduceDataTypeIaEEiT_NS0_8DataTypeERS3_",
            "__ZNK6LercNS5Lerc29WriteTileIaEEbPKT_iPPhRiiS2_S2_NS0_8DataTypeEbRKNSt3__16vectorIjNS9_9allocatorIjEEEENS0_15BlockEncodeModeERKNSA_INS9_4pairIjjEENSB_ISI_EEEE",
            "__ZN6LercNS5Lerc26DecodeIsEEbPPKhRmPT_Ph",
            "__ZNK6LercNS5Lerc29ReadTilesIfEEbPPKhRmPT_",
            "__ZNK6LercNS5Lerc210WriteTilesIdEEbPKT_PPhRi",
            "__ZNSt3__16vectorINS_4pairImiEENS_9allocatorIS2_EEE22__construct_one_at_endB8de180100IJS2_EEEvDpOT_",
            "__ZNSt3__112__debug_lessINS0_INS_7greaterIdEEEEEclB8de180100IttEEbRT_RT0_",
            "__ZNSt3__116allocator_traitsINS_9allocatorIaEEE9constructB8de180100IaJRKaEvEEvRS2_PT_DpOT0_",
            "__ZNK6LercNS5Lerc219ComputeMinMaxRangesIaEEbPKT_RNSt3__16vectorIdNS5_9allocatorIdEEEESA_",
            "__ZNK6LercNS5Lerc214FillConstImageIsEEbPT_",
            "__ZN6LercNS4Lerc20ConvertToDoubleTemplIfEENS_7ErrCodeEPKT_mPd",
            "__ZNSt3__112__debug_lessINS_7greaterIdEEE19__do_compare_assertB8de180100IttEEDTcvvclclL_ZNS_7declvalB8de180100IRS2_EEDTclsr3stdE9__declvalIT_ELi0EEEvEEclsr3stdE7declvalIRS7_EEclsr3stdE7declvalIRT0_EEEEiS9_SB_",
            "__ZNSt3__19allocatorItE9constructB8de180100ItJRKtEEEvPT_DpOT0_",
            "__ZNSt3__116allocator_traitsINS_9allocatorItEEE9constructB8de180100ItJEvEEvRS2_PT_DpOT0_",
            "__ZNSt3__116allocator_traitsINS_9allocatorINS_4pairIjjEEEEE7destroyB8de180100IS3_vEEvRS4_PT_",
            "__ZN6LercNS5Lerc214ReduceDataTypeIhEEiT_NS0_8DataTypeERS3_",
            "__ZNSt3__116allocator_traitsINS_9allocatorINS_4pairIiPcEEEEE9constructB8de180100IS4_JS4_EvEEvRS5_PT_DpOT0_",
            "__ZN6LercNS4Lerc7ConvertIjEEbRKNS_9CntZImageEPT_Phb",
            "__ZN6LercNS5Lerc216ReadMinMaxRangesIaEEbPPKhRmPKT_",
            "__ZNK6LercNS7Huffman14DecodeOneValueEPPKhRmRiiS5_",
            "__ZNSt3__19allocatorIhE9constructB8de180100IhJRKhEEEvPT_DpOT0_",
            "__ZNSt3__16vectorINS_4pairItjEENS_9allocatorIS2_EEE6assignIPS2_Li0EEEvT_S8_",
            "__ZN6LercNS4Lerc12FilterNoDataIiEENS_7ErrCodeERNSt3__16vectorIT_NS3_9allocatorIS5_EEEERNS4_IhNS6_IhEEEEiiiRdbSD_RbSE_",
            "__ZN6LercNS5Lerc216ReadMinMaxRangesItEEbPPKhRmPKT_",
            "__ZN6LercNS5Lerc214ReduceDataTypeIjEEiT_NS0_8DataTypeERS3_",
            "__ZN6LercNS11BitStuffer210DecodeUIntEPPKhRmRji",
            "__ZN6LercNS5Lerc219ScaleBackConstBlockItEEvPT_idbd",
            "__ZNK6LercNS5Lerc217TryRaiseMaxZErrorIaEEbPKT_Rd",
            "__ZNSt3__111__introsortINS_17_ClassicAlgPolicyERNS_7greaterIdEEPtLb0EEEvT1_S6_T0_NS_15iterator_traitsIS6_E15difference_typeEb",
            "__ZN6LercNS5Lerc216ReadMinMaxRangesIsEEbPPKhRmPKT_",
            "__ZNSt3__116allocator_traitsINS_9allocatorIiEEE9constructB8de180100IiJiEvEEvRS2_PT_DpOT0_",
            "__ZNSt3__112__debug_lessINS0_INS_7greaterIdEEEEE19__do_compare_assertB8de180100IttEEDTcvvclclL_ZNS_7declvalB8de180100IRS3_EEDTclsr3stdE9__declvalIT_ELi0EEEvEEclsr3stdE7declvalIRS8_EEclsr3stdE7declvalIRT0_EEEEiSA_SC_",
            "__ZN6LercNS5Lerc219ComputeDiffSliceFltIaEEbPKT_S4_ibdRNSt3__16vectorIS2_NS5_9allocatorIS2_EEEERS2_SB_Rb",
            "__Z11getMinIndexImEmPKT_m",
            "__ZNSt3__112__debug_lessINS_7greaterIdEEE19__do_compare_assertB8de180100IjjEEDTcvvclclL_ZNS_7declvalB8de180100IRS2_EEDTclsr3stdE9__declvalIT_ELi0EEEvEEclsr3stdE7declvalIRS7_EEclsr3stdE7declvalIRT0_EEEEiS9_SB_",
            "__ZN6LercNS4Lerc12FilterNoDataItEENS_7ErrCodeERNSt3__16vectorIT_NS3_9allocatorIS5_EEEERNS4_IhNS6_IhEEEEiiiRdbSD_RbSE_",
            "__ZNKSt3__111__move_loopINS_17_ClassicAlgPolicyEEclB8de180100INS_16reverse_iteratorIPiEES6_S6_EENS_4pairIT_T1_EES8_T0_S9_",
            "__ZNSt3__112__debug_lessIRNS_7greaterIdEEEclB8de180100IffEEbRT_RT0_",
            "__ZNSt3__16vectorI9TestBlockNS_9allocatorIS1_EEE22__construct_one_at_endB8de180100IJRKS1_EEEvDpOT_",
            "__ZN6LercNS4Lerc11RemapNoDataIaEEbPT_RKNS_7BitMaskERKNS_5Lerc210HeaderInfoE",
            "__ZNSt3__19allocatorIhE9constructB8de180100IhJhEEEvPT_DpOT0_",
            "__ZN6LercNS4Lerc14EncodeInternalIfEENS_7ErrCodeEPKT_iiiiiiPKhdRjPhjS8_S7_PKd",
            "__ZN6LercNS5Lerc26DecodeItEEbPPKhRmPT_Ph",
            "__ZNK6LercNS5Lerc214NeedToQuantizeIdEEbiT_S2_",
            "__ZN6LercNS4Lerc16ReplaceNaNValuesIiEEbRNSt3__16vectorIT_NS2_9allocatorIS4_EEEERNS3_IhNS5_IhEEEEiii",
            "__ZNSt3__19allocatorINS_4pairIjjEEE9constructB8de180100IS2_JEEEvPT_DpOT0_",
            "__ZNSt3__116allocator_traitsINS_9allocatorIsEEE9constructB8de180100IsJsEvEEvRS2_PT_DpOT0_",
            "__ZNSt3__112__debug_lessIRNS0_IRNS_7greaterIdEEEEE19__do_compare_assertB8de180100IddEEDTcvvclclL_ZNS_7declvalB8de180100IS5_EEDTclsr3stdE9__declvalIT_ELi0EEEvEEclsr3stdE7declvalIRS9_EEclsr3stdE7declvalIRT0_EEEEiSB_SD_",
            "__ZNK6LercNS5Lerc213DecodeHuffmanIiEEbPPKhRmPT_",
            "__ZNSt3__116allocator_traitsINS_9allocatorI9TestBlockEEE8max_sizeB8de180100IS3_vEEmRKS3_",
            "__ZNSt3__116allocator_traitsINS_9allocatorIfEEE9constructB8de180100IfJEvEEvRS2_PT_DpOT0_",
            "__ZNK6LercNS5Lerc28QuantizeIaEEvPKT_iS2_RNSt3__16vectorIjNS5_9allocatorIjEEEE",
            "__ZN6LercNS4Lerc12GetTypeRangeIaEEbT_RNSt3__14pairIddEE",
            "__ZN6LercNS4Lerc7ConvertIhEEbRKNS_9CntZImageEPT_Phb",
            "__ZNK6LercNS5Lerc216ReadDataOneSweepIsEEbPPKhRmPT_",
            "__ZN6LercNS4Lerc6ResizeIfEEbRNSt3__16vectorIT_NS2_9allocatorIS4_EEEEm",
            "__ZNKSt3__111__move_loopINS_17_ClassicAlgPolicyEEclB8de180100INS_16reverse_iteratorIPjEES6_S6_EENS_4pairIT_T1_EES8_T0_S9_",
            "__ZNSt3__16vectorIfNS_9allocatorIfEEE22__construct_one_at_endB8de180100IJfEEEvDpOT_",
            "__ZNSt3__111__introsortINS_17_ClassicAlgPolicyERNS_7greaterIdEEPdLb0EEEvT1_S6_T0_NS_15iterator_traitsIS6_E15difference_typeEb",
            "__ZNK6LercNS5Lerc28QuantizeIiEEvPKT_iS2_RNSt3__16vectorIjNS5_9allocatorIjEEEE",
            "__ZNSt3__19allocatorIdE9constructB8de180100IdJRKdEEEvPT_DpOT0_",
            "__ZN6LercNS5Lerc228ComputeNumBytesNeededToWriteIdEEjPKT_db",
            "__ZN6LercNS4Lerc6ResizeIiEEbRNSt3__16vectorIT_NS2_9allocatorIS4_EEEEm",
            "__ZN6LercNS5Lerc219ScaleBackConstBlockIsEEvPT_idbd",
            "__ZNSt3__116allocator_traitsINS_9allocatorIhEEE9constructB8de180100IhJRKhEvEEvRS2_PT_DpOT0_",
            "__ZNSt3__16vectorIhNS_9allocatorIhEEE22__construct_one_at_endB8de180100IJRKhEEEvDpOT_",
            "__ZNSt3__112__debug_lessINS0_INS0_IRNS0_IRNS_7greaterIdEEEEEEEEE19__do_compare_assertB8de180100IjjEEDTcvvclclL_ZNS_7declvalB8de180100IRS7_EEDTclsr3stdE9__declvalIT_ELi0EEEvEEclsr3stdE7declvalIRSC_EEclsr3stdE7declvalIRT0_EEEEiSE_SG_",
            "__ZN6LercNS5Lerc219ComputeDiffSliceIntIhEEbPKT_S4_ibdRNSt3__16vectorIiNS5_9allocatorIiEEEERiSB_Rb",
            "__ZNK6LercNS5Lerc213DecodeHuffmanIdEEbPPKhRmPT_",
            "__ZNSt3__112__debug_lessINS0_INS0_IRNS0_IRNS_7greaterIdEEEEEEEEE19__do_compare_assertB8de180100IaaEEDTcvvclclL_ZNS_7declvalB8de180100IRS7_EEDTclsr3stdE9__declvalIT_ELi0EEEvEEclsr3stdE7declvalIRSC_EEclsr3stdE7declvalIRT0_EEEEiSE_SG_",
            "__ZNSt3__112__debug_lessINS0_INS_7greaterIdEEEEEclB8de180100IjjEEbRT_RT0_",
            "__ZNSt3__116allocator_traitsINS_9allocatorINS_4pairImiEEEEE9constructB8de180100IS3_JS3_EvEEvRS4_PT_DpOT0_",
            "__ZN6LercNS4Lerc6ResizeIsEEbRNSt3__16vectorIT_NS2_9allocatorIS4_EEEEm",
            "__ZN6LercNS5Lerc26DecodeIaEEbPPKhRmPT_Ph",
            "__ZNK6LercNS5Lerc217WriteMinMaxRangesItEEbPKT_PPh",
            "__ZNKSt3__111__move_loopINS_17_ClassicAlgPolicyEEclB8de180100INS_16reverse_iteratorIPdEES6_S6_EENS_4pairIT_T1_EES8_T0_S9_",
            "__ZNSt3__116allocator_traitsINS_9allocatorIfEEE8max_sizeB8de180100IS2_vEEmRKS2_",
            "__ZN6LercNS5Lerc219ComputeDiffSliceIntIiEEbPKT_S4_ibdRNSt3__16vectorIiNS5_9allocatorIiEEEERiSB_Rb",
            "__ZNK6LercNS5Lerc29WriteTileIjEEbPKT_iPPhRiiS2_S2_NS0_8DataTypeEbRKNSt3__16vectorIjNS9_9allocatorIjEEEENS0_15BlockEncodeModeERKNSA_INS9_4pairIjjEENSB_ISI_EEEE",
            "__ZNK6LercNS5Lerc217WriteDataOneSweepIaEEbPKT_PPh",
            "__ZNSt3__116allocator_traitsINS_9allocatorINS_4pairItjEEEEE9constructB8de180100IS3_JS3_EvEEvRS4_PT_DpOT0_",
            "__ZNK6LercNS5Lerc217WriteDataOneSweepIjEEbPKT_PPh",
            "__ZNSt3__112__debug_lessINS_7greaterIdEEEclB8de180100IffEEbRT_RT0_",
            "__ZN6LercNS5Lerc210HeaderInfo7RawInitEv",
            "__ZNSt3__112__debug_lessINS0_IRNS0_IRNS_7greaterIdEEEEEEE19__do_compare_assertB8de180100IhhEEDTcvvclclL_ZNS_7declvalB8de180100IRS6_EEDTclsr3stdE9__declvalIT_ELi0EEEvEEclsr3stdE7declvalIRSB_EEclsr3stdE7declvalIRT0_EEEEiSD_SF_",
            "__ZNK6LercNS5Lerc29ReadTilesIjEEbPPKhRmPT_",
            "__ZNSt3__111__introsortINS_17_ClassicAlgPolicyERNS_7greaterIdEEPsLb0EEEvT1_S6_T0_NS_15iterator_traitsIS6_E15difference_typeEb",
            "__ZNSt3__16vectorIjNS_9allocatorIjEEE22__construct_one_at_endB8de180100IJRKjEEEvDpOT_",
            "__ZN6LercNS4Lerc18FilterNoDataAndNaNIhEENS_7ErrCodeERNSt3__16vectorIT_NS3_9allocatorIS5_EEEERNS4_IhNS6_IhEEEEiiiRdbSD_RbSE_SE_",
            "__ZNSt3__19allocatorIaE9constructB8de180100IaJaEEEvPT_DpOT0_",
            "__ZNSt3__112__debug_lessINS_4lessIN6LercNS7Huffman4NodeEEEE19__do_compare_assertB8de180100IS4_S4_EEDTcvvclclL_ZNS_7declvalB8de180100IRS5_EEDTclsr3stdE9__declvalIT_ELi0EEEvEEclsr3stdE7declvalIRSA_EEclsr3stdE7declvalIRT0_EEEEiSC_SE_",
            "__ZN6LercNS4Lerc11DecodeTemplIiEENS_7ErrCodeEPT_PKhjiiiiiPhS7_Pd",
            "__ZN6LercNS4Lerc20ConvertToDoubleTemplIaEENS_7ErrCodeEPKT_mPd",
            "__ZNK6LercNS5Lerc29ReadTilesIiEEbPPKhRmPT_",
            "__ZNK6LercNS5Lerc217TryRaiseMaxZErrorItEEbPKT_Rd",
            "__ZNK6LercNS5Lerc217WriteDataOneSweepIdEEbPKT_PPh",
            "__ZN6LercNS5Lerc214ReduceDataTypeIsEEiT_NS0_8DataTypeERS3_",
            "__ZNK6LercNS5Lerc219ComputeMinMaxRangesIiEEbPKT_RNSt3__16vectorIdNS5_9allocatorIdEEEESA_",
            "__ZN6LercNS4Lerc26ComputeCompressedSizeTemplItEENS_7ErrCodeEPKT_iiiiiiPKhdRjS7_PKd",
            "__ZNK6LercNS5Lerc217WriteMinMaxRangesIjEEbPKT_PPh",
            "__ZNSt3__112__debug_lessIRNS0_IRNS_7greaterIdEEEEEclB8de180100IaaEEbRT_RT0_",
            "__ZNK6LercNS5Lerc214FillConstImageItEEbPT_",
            "__ZNSt3__116allocator_traitsINS_9allocatorItEEE9constructB8de180100ItJRKtEvEEvRS2_PT_DpOT0_",
            "__ZNK6LercNS5Lerc217WriteMinMaxRangesIsEEbPKT_PPh",
            "__ZN6LercNS7Huffman18GetIndexWrapAroundEii",
            "__ZNSt3__112__debug_lessINS_6__lessIvvEEEclB8de180100IddEEbRT_RT0_",
            "__ZNSt3__116allocator_traitsINS_9allocatorIfEEE7destroyB8de180100IfvEEvRS2_PT_",
            "__ZN6LercNS5Lerc219ComputeDiffSliceFltIhEEbPKT_S4_ibdRNSt3__16vectorIS2_NS5_9allocatorIS2_EEEERS2_SB_Rb",
            "__ZNSt3__112__debug_lessINS0_IRNS0_IRNS_7greaterIdEEEEEEE19__do_compare_assertB8de180100IaaEEDTcvvclclL_ZNS_7declvalB8de180100IRS6_EEDTclsr3stdE9__declvalIT_ELi0EEEvEEclsr3stdE7declvalIRSB_EEclsr3stdE7declvalIRT0_EEEEiSD_SF_",
            "__ZN6LercNS5Lerc220ReadVariableDataTypeEPPKhNS0_8DataTypeE",
            "__ZN6LercNS4Lerc11DecodeTemplIaEENS_7ErrCodeEPT_PKhjiiiiiPhS7_Pd",
            "__ZNK6LercNS5Lerc210WriteTilesIjEEbPKT_PPhRi",
            "__ZNSt3__112__debug_lessIRNS_7greaterIdEEE19__do_compare_assertB8de180100IddEEDTcvvclclL_ZNS_7declvalB8de180100IS3_EEDTclsr3stdE9__declvalIT_ELi0EEEvEEclsr3stdE7declvalIRS7_EEclsr3stdE7declvalIRT0_EEEEiS9_SB_",
            "__ZN6LercNS4Lerc11EncodeTemplIiEENS_7ErrCodeEPKT_iiiiiiPKhdPhjRjS7_PKd",
            "__ZNK6LercNS5Lerc214FillConstImageIiEEbPT_",
            "__ZNSt3__16vectorIdNS_9allocatorIdEEE22__construct_one_at_endB8de180100IJdEEEvDpOT_",
            "__ZN6LercNS4Lerc6ResizeIaEEbRNSt3__16vectorIT_NS2_9allocatorIS4_EEEEm",
            "__ZNK6LercNS5Lerc214NeedToQuantizeIaEEbiT_S2_",
            "__ZNSt3__16vectorIN6LercNS7Huffman4NodeENS_9allocatorIS3_EEE22__construct_one_at_endB8de180100IJS3_EEEvDpOT_",
            "__ZNSt3__16vectorIdNS_9allocatorIdEEE21__push_back_slow_pathIdEEPdOT_",
            "__ZN6LercNS4Lerc26FindNewNoDataBelowValidMinIfEEbddbdRT_",
            "__ZN6LercNS4Lerc12FilterNoDataIhEENS_7ErrCodeERNSt3__16vectorIT_NS3_9allocatorIS5_EEEERNS4_IhNS6_IhEEEEiiiRdbSD_RbSE_",
            "__ZNK6LercNS5Lerc219ComputeMinMaxRangesIhEEbPKT_RNSt3__16vectorIdNS5_9allocatorIdEEEESA_",
            "__ZN6LercNS4Lerc7ConvertIfEEbRKNS_9CntZImageEPT_Phb",
            "__ZNSt3__116allocator_traitsINS_9allocatorItEEE7destroyB8de180100ItvEEvRS2_PT_",
            "__ZNSt3__116allocator_traitsINS_9allocatorIN6LercNS7Huffman4NodeEEEE8max_sizeB8de180100IS5_vEEmRKS5_",
            "__ZNSt3__116allocator_traitsINS_9allocatorINS_4pairItjEEEEE8max_sizeB8de180100IS4_vEEmRKS4_",
            "__ZNK6LercNS5Lerc222TryBitPlaneCompressionIaEEbPKT_dRd",
            "__ZN6LercNS4Lerc11CheckForNaNItEENS_7ErrCodeEPKT_iiiPKh",
            "__ZNSt3__114__split_bufferIjRNS_9allocatorIjEEE28__construct_at_end_with_sizeINS_13move_iteratorIPjEEEEvT_m",
            "__ZN6LercNS5Lerc26DecodeIdEEbPPKhRmPT_Ph",
            "__ZN6LercNS4Lerc12FilterNoDataIjEENS_7ErrCodeERNSt3__16vectorIT_NS3_9allocatorIS5_EEEERNS4_IhNS6_IhEEEEiiiRdbSD_RbSE_",
            "__ZNSt3__112__debug_lessINS0_INS0_IRNS0_IRNS_7greaterIdEEEEEEEEEclB8de180100IddEEbRT_RT0_",
            "__ZNKSt3__111__copy_loopINS_17_ClassicAlgPolicyEEclB8de180100IPNS_4pairItjEES6_S6_EENS4_IT_T1_EES7_T0_S8_",
            "__ZN6LercNS4Lerc12GetTypeRangeItEEbT_RNSt3__14pairIddEE",
            "__ZNSt3__112__debug_lessIRNS_7greaterIdEEE19__do_compare_assertB8de180100IaaEEDTcvvclclL_ZNS_7declvalB8de180100IS3_EEDTclsr3stdE9__declvalIT_ELi0EEEvEEclsr3stdE7declvalIRS7_EEclsr3stdE7declvalIRT0_EEEEiS9_SB_",
            "__ZN6LercNS4Lerc12GetTypeRangeIsEEbT_RNSt3__14pairIddEE",
            "__ZN6LercNS4Lerc26FindNewNoDataBelowValidMinIsEEbddbdRT_",
            "__ZNK6LercNS5Lerc219ComputeHuffmanCodesIsEEvPKT_RiRNS0_15ImageEncodeModeERNSt3__16vectorINS8_4pairItjEENS8_9allocatorISB_EEEE",
            "__ZN6LercNS5ImageaSERKS0_",
            "__ZNSt3__16vectorIhNS_9allocatorIhEEE22__construct_one_at_endB8de180100IJhEEEvDpOT_",
            "__ZNK6LercNS5Lerc29WriteTileItEEbPKT_iPPhRiiS2_S2_NS0_8DataTypeEbRKNSt3__16vectorIjNS9_9allocatorIjEEEENS0_15BlockEncodeModeERKNSA_INS9_4pairIjjEENSB_ISI_EEEE",
            "__ZNKSt3__111__move_loopINS_17_ClassicAlgPolicyEEclB8de180100INS_16reverse_iteratorIPPN6LercNS21LosslessFPCompression14outBlockBufferEEESA_SA_EENS_4pairIT_T1_EESC_T0_SD_",
            "__ZN6LercNS4Lerc20ConvertToDoubleTemplIiEENS_7ErrCodeEPKT_mPd",
            "__ZN6LercNS4Lerc11CheckForNaNIjEENS_7ErrCodeEPKT_iiiPKh",
            "__ZN6LercNS5Lerc219ComputeDiffSliceIntIaEEbPKT_S4_ibdRNSt3__16vectorIiNS5_9allocatorIiEEEERiSB_Rb",
            "__ZNSt3__112__debug_lessIRNS0_IRNS_7greaterIdEEEEE19__do_compare_assertB8de180100IssEEDTcvvclclL_ZNS_7declvalB8de180100IS5_EEDTclsr3stdE9__declvalIT_ELi0EEEvEEclsr3stdE7declvalIRS9_EEclsr3stdE7declvalIRT0_EEEEiSB_SD_",
            "__ZNSt3__112__debug_lessIRNS0_IRNS_7greaterIdEEEEE19__do_compare_assertB8de180100IiiEEDTcvvclclL_ZNS_7declvalB8de180100IS5_EEDTclsr3stdE9__declvalIT_ELi0EEEvEEclsr3stdE7declvalIRS9_EEclsr3stdE7declvalIRT0_EEEEiSB_SD_",
            "__ZNK6LercNS5Lerc220GetValidDataAndStatsIdEEbPKT_iiiiiPS2_RS2_S6_RiRb",
            "__ZNSt3__112__debug_lessINS0_IRNS0_IRNS_7greaterIdEEEEEEEclB8de180100IttEEbRT_RT0_",
            "__ZNSt3__116allocator_traitsINS_9allocatorIjEEE9constructB8de180100IjJjEvEEvRS2_PT_DpOT0_",
            "__ZN6LercNS4Lerc11RemapNoDataIiEEbPT_RKNS_7BitMaskERKNS_5Lerc210HeaderInfoE",
            "__ZNSt3__19allocatorIsE9constructB8de180100IsJRKsEEEvPT_DpOT0_",
            "__ZNK6LercNS5Lerc222ComputeHistoForHuffmanIsEEvPKT_RNSt3__16vectorIiNS5_9allocatorIiEEEESA_",
            "__ZNK6LercNS5Lerc220GetValidDataAndStatsIsEEbPKT_iiiiiPS2_RS2_S6_RiRb",
            "__ZNSt3__116allocator_traitsINS_9allocatorIaEEE9constructB8de180100IaJaEvEEvRS2_PT_DpOT0_",
            "__ZNSt3__112__debug_lessINS0_INS_7greaterIdEEEEE19__do_compare_assertB8de180100IiiEEDTcvvclclL_ZNS_7declvalB8de180100IRS3_EEDTclsr3stdE9__declvalIT_ELi0EEEvEEclsr3stdE7declvalIRS8_EEclsr3stdE7declvalIRT0_EEEEiSA_SC_",
            "__ZN6LercNS4Lerc12GetTypeRangeIdEEbT_RNSt3__14pairIddEE",
            "__ZN6LercNS11BitStuffer227ComputeNumBytesNeededSimpleEjj",
            "__ZN6LercNS5Lerc219ComputeDiffSliceIntIdEEbPKT_S4_ibdRNSt3__16vectorIiNS5_9allocatorIiEEEERiSB_Rb",
            "__ZNSt3__112__debug_lessINS0_IRNS0_IRNS_7greaterIdEEEEEEEclB8de180100IddEEbRT_RT0_",
            "__ZNK6LercNS5Lerc217WriteDataOneSweepIiEEbPKT_PPh",
            "__ZNSt3__112__debug_lessIRNS_7greaterIdEEEclB8de180100IhhEEbRT_RT0_",
            "__ZNK6LercNS5Lerc217WriteMinMaxRangesIaEEbPKT_PPh",
            "__ZN6LercNS5Lerc219ComputeDiffSliceIntIjEEbPKT_S4_ibdRNSt3__16vectorIiNS5_9allocatorIiEEEERiSB_Rb",
            "__ZNSt3__16vectorIjNS_9allocatorIjEEE21__push_back_slow_pathIjEEPjOT_",
            "__ZN6LercNS5Lerc223NeedToCheckForFltRndErrERKNS0_10HeaderInfoE",
            "__ZNSt3__19allocatorI9TestBlockE9constructB8de180100IS1_JRKS1_EEEvPT_DpOT0_",
            "__ZNK6LercNS5Lerc217WriteDataOneSweepIfEEbPKT_PPh",
            "__ZNSt3__16vectorIiNS_9allocatorIiEEE22__construct_one_at_endB8de180100IJiEEEvDpOT_",
            "__ZNSt3__112__debug_lessINS_7greaterIdEEE19__do_compare_assertB8de180100IddEEDTcvvclclL_ZNS_7declvalB8de180100IRS2_EEDTclsr3stdE9__declvalIT_ELi0EEEvEEclsr3stdE7declvalIRS7_EEclsr3stdE7declvalIRT0_EEEEiS9_SB_",
            "__ZNK6LercNS5Lerc210HeaderInfo13TryHuffmanIntEv",
            "__ZNSt3__19allocatorINS_4pairIssEEE9constructB8de180100IS2_JRKS2_EEEvPT_DpOT0_",
            "__ZN6LercNS4Lerc6ResizeIhEEbRNSt3__16vectorIT_NS2_9allocatorIS4_EEEEm",
            "__ZN6LercNS5Lerc215AddUIntToCountsEPiji",
            "__ZNSt3__112__debug_lessINS_7greaterIdEEEclB8de180100IttEEbRT_RT0_",
            "__ZNK6LercNS7BitMask9GetHeightEv",
            "__ZN6LercNS4Lerc11CheckForNaNIsEENS_7ErrCodeEPKT_iiiPKh",
            "__ZNK6LercNS7Huffman4Node9TreeToLUTEtjRNSt3__16vectorINS2_4pairItjEENS2_9allocatorIS5_EEEE",
            "__ZNK6LercNS5Lerc213DecodeHuffmanIfEEbPPKhRmPT_",
            "__ZNSt3__116allocator_traitsINS_9allocatorIiEEE8max_sizeB8de180100IS2_vEEmRKS2_",
            "__ZN6LercNS5Lerc29ScaleBackIdEEvPT_RKNSt3__16vectorIjNS4_9allocatorIjEEEEdbbdd",
            "__ZN6LercNS4Lerc11CheckForNaNIaEENS_7ErrCodeEPKT_iiiPKh",
            "__ZN6LercNS4Lerc17EncodeInternal_v5ItEENS_7ErrCodeEPKT_iiiiiiPKhdRjPhjS8_",
            "__ZNSt3__111__introsortINS_17_ClassicAlgPolicyERNS_7greaterIdEEPfLb0EEEvT1_S6_T0_NS_15iterator_traitsIS6_E15difference_typeEb",
            "__ZNK6LercNS5Lerc222ComputeHistoForHuffmanIdEEvPKT_RNSt3__16vectorIiNS5_9allocatorIiEEEESA_",
            "__ZN6LercNS5Lerc219ComputeDiffSliceIntIfEEbPKT_S4_ibdRNSt3__16vectorIiNS5_9allocatorIiEEEERiSB_Rb",
            "__ZN6LercNS5Lerc211GetDataTypeIjEENS0_8DataTypeET_",
            "__ZN6LercNS5Lerc216ReadMinMaxRangesIhEEbPPKhRmPKT_",
            "__ZN6LercNS5Lerc221WriteVariableDataTypeEPPhdNS0_8DataTypeE",
            "__ZN6LercNS5Lerc219ComputeDiffSliceFltIiEEbPKT_S4_ibdRNSt3__16vectorIS2_NS5_9allocatorIS2_EEEERS2_SB_Rb",
            "__ZNSt3__116allocator_traitsINS_9allocatorIjEEE9constructB8de180100IjJEvEEvRS2_PT_DpOT0_",
            "__ZNK6LercNS5Lerc216ReadDataOneSweepItEEbPPKhRmPT_",
            "__ZN6LercNS4Lerc12GetTypeRangeIfEEbT_RNSt3__14pairIddEE",
            "__ZN6LercNS4Lerc18FilterNoDataAndNaNIdEENS_7ErrCodeERNSt3__16vectorIT_NS3_9allocatorIS5_EEEERNS4_IhNS6_IhEEEEiiiRdbSD_RbSE_SE_",
            "__ZNK6LercNS5Lerc222ComputeHistoForHuffmanIiEEvPKT_RNSt3__16vectorIiNS5_9allocatorIiEEEESA_",
            "__ZNK6LercNS5Lerc28ReadTileIaEEbPPKhRmPT_iiiiiRNSt3__16vectorIjNS8_9allocatorIjEEEE",
            "__ZNSt3__116allocator_traitsINS_9allocatorIsEEE9constructB8de180100IsJEvEEvRS2_PT_DpOT0_",
            "__ZN6LercNS5Lerc216ReadMinMaxRangesIfEEbPPKhRmPKT_",
            "__ZNSt3__19allocatorIjE9constructB8de180100IjJRKjEEEvPT_DpOT0_",
            "__ZN6LercNS4Lerc14EncodeInternalIdEENS_7ErrCodeEPKT_iiiiiiPKhdRjPhjS8_S7_PKd",
            "__ZN6LercNS5Lerc211GetDataTypeIdEENS0_8DataTypeET_",
            "__ZNSt3__116allocator_traitsINS_9allocatorINS_4pairIjjEEEEE9constructB8de180100IS3_JS3_EvEEvRS4_PT_DpOT0_",
            "__ZN6LercNS5Lerc214ReduceDataTypeIiEEiT_NS0_8DataTypeERS3_",
            "__ZNK6LercNS5Lerc214NeedToQuantizeIsEEbiT_S2_",
            "__ZN6LercNS4Lerc12FilterNoDataIaEENS_7ErrCodeERNSt3__16vectorIT_NS3_9allocatorIS5_EEEERNS4_IhNS6_IhEEEEiiiRdbSD_RbSE_",
            "__ZNSt3__112__debug_lessINS0_IRNS0_IRNS_7greaterIdEEEEEEE19__do_compare_assertB8de180100IttEEDTcvvclclL_ZNS_7declvalB8de180100IRS6_EEDTclsr3stdE9__declvalIT_ELi0EEEvEEclsr3stdE7declvalIRSB_EEclsr3stdE7declvalIRT0_EEEEiSD_SF_",
            "__ZNK6LercNS5Lerc222TryBitPlaneCompressionIiEEbPKT_dRd",
            "__ZNSt3__112__debug_lessIRNS0_IRNS_7greaterIdEEEEE19__do_compare_assertB8de180100IaaEEDTcvvclclL_ZNS_7declvalB8de180100IS5_EEDTclsr3stdE9__declvalIT_ELi0EEEvEEclsr3stdE7declvalIRS9_EEclsr3stdE7declvalIRT0_EEEEiSB_SD_",
            "__ZNSt3__112__debug_lessINS_7greaterIdEEEclB8de180100IhhEEbRT_RT0_",
            "__ZN6LercNS4Lerc18FilterNoDataAndNaNItEENS_7ErrCodeERNSt3__16vectorIT_NS3_9allocatorIS5_EEEERNS4_IhNS6_IhEEEEiiiRdbSD_RbSE_SE_",
            "__ZNSt3__16vectorIsNS_9allocatorIsEEE21__push_back_slow_pathIsEEPsOT_",
            "__ZNSt3__112__debug_lessIRNS0_IRNS_7greaterIdEEEEEclB8de180100IddEEbRT_RT0_",
            "__ZNK6LercNS5Lerc217WriteMinMaxRangesIhEEbPKT_PPh",
            "__ZNSt3__112__debug_lessINS0_INS_7greaterIdEEEEE19__do_compare_assertB8de180100IddEEDTcvvclclL_ZNS_7declvalB8de180100IRS3_EEDTclsr3stdE9__declvalIT_ELi0EEEvEEclsr3stdE7declvalIRS8_EEclsr3stdE7declvalIRT0_EEEEiSA_SC_",
            "__ZNSt3__112__debug_lessINS0_INS_7greaterIdEEEEE19__do_compare_assertB8de180100IjjEEDTcvvclclL_ZNS_7declvalB8de180100IRS3_EEDTclsr3stdE9__declvalIT_ELi0EEEvEEclsr3stdE7declvalIRS8_EEclsr3stdE7declvalIRT0_EEEEiSA_SC_",
            "__ZNSt3__112__debug_lessIRNS_7greaterIdEEE19__do_compare_assertB8de180100IssEEDTcvvclclL_ZNS_7declvalB8de180100IS3_EEDTclsr3stdE9__declvalIT_ELi0EEEvEEclsr3stdE7declvalIRS7_EEclsr3stdE7declvalIRT0_EEEEiS9_SB_",
            "__ZNSt3__112__debug_lessINS0_INS_7greaterIdEEEEEclB8de180100IaaEEbRT_RT0_"
          ]
        }
      }
    ],
    "flags": [
      {
        "attributes": [
          "not_app_extension_safe"
        ]
      }
    ],
    "install_names": [
      {
        "name": "@rpath/libLerc.4.dylib"
      }
    ],
    "target_info": [
      {
        "min_deployment": "2",
        "target": "arm64-xros"
      }
    ]
  },
  "tapi_tbd_version": 5
}
