{
  "main_library": {
    "compatibility_versions": [
      {
        "version": "4"
      }
    ],
    "current_versions": [
      {
        "version": "0"
      }
    ],
    "exported_symbols": [
      {
        "text": {
          "global": [
            "__ZN6LercNS5Lerc228ComputeNumBytesHeaderToWriteERKNS0_10HeaderInfoE",
            "_lerc_decode_4D",
            "__ZN6LercNS9CntZImage11numBytesFltEf",
            "__ZN6LercNS3RLE9readCountEPPKh",
            "__ZN6LercNS21LosslessFPCompressionD1Ev",
            "__ZN6LercNS9Predictor17fromDeltaAndCrossEib",
            "__Z18setDerivativeFloatPjmii",
            "__ZN6LercNS9Predictor7getTypeEc",
            "__ZN6LercNS7BitMaskaSERKS0_",
            "__ZNK6LercNS7Huffman21ComputeCompressedSizeERKNSt3__16vectorIiNS1_9allocatorIiEEEERiRd",
            "__ZN6LercNS5Lerc213GetHeaderInfoEPKhmRNS0_10HeaderInfoERb",
            "__ZN6LercNS10BitStuffer8readUIntEPPKhRji",
            "__ZN6LercNS7Huffman9ClearTreeEv",
            "__ZN6LercNS7Huffman8SetCodesERKNSt3__16vectorINS1_4pairItjEENS1_9allocatorIS4_EEEE",
            "__Z14decodePackBitsPKhmmPPh",
            "__Z13ADD64_BIT_DBLRKyS0_",
            "__ZN6LercNS15fpl_EsriHuffman13DecodeHuffmanEPKhmRmPPh",
            "__ZN6LercNS5Lerc29GetRangesEPKhmPdS3_",
            "__ZN6LercNS4Lerc11GetLercInfoEPKhjRNS0_8LercInfoEPdS5_m",
            "__ZN6LercNS9Predictor7getCodeENS_13PredictorTypeE",
            "__ZN6LercNS5Lerc215SetNoDataValuesEbdd",
            "__ZN6LercNS4Lerc9GetRangesEPKhjiRKNS_5Lerc210HeaderInfoEPdS7_m",
            "__ZN6LercNS9UnitTypes8unitCodeENS_8UnitTypeE",
            "__ZNK6LercNS10BitStuffer4readEPPKhRNSt3__16vectorIjNS4_9allocatorIjEEEE",
            "_lerc_computeCompressedSize",
            "__ZN6LercNS9UnitTypes18undoFloatTransformEPjm",
            "__ZN6LercNS5Lerc2C2Ev",
            "__Z22setRowsDerivativeFloatPjmmii",
            "__ZNK6LercNS11BitStuffer212EncodeSimpleEPPhRKNSt3__16vectorIjNS3_9allocatorIjEEEEi",
            "__ZNK6LercNS11BitStuffer225BitUnStuff_Before_Lerc2v3EPPKhRmRNSt3__16vectorIjNS5_9allocatorIjEEEEji",
            "__ZNK6LercNS7Huffman13BitStuffCodesEPPhii",
            "__ZN6LercNS11BitStuffer224ComputeNumBytesNeededLutERKNSt3__16vectorINS1_4pairIjjEENS1_9allocatorIS4_EEEERb",
            "__Z12getBestLevelPKhmi",
            "__Z26restoreBlockSequenceDoubleiPymm",
            "__ZN6LercNS5Lerc214SortQuantArrayERKNSt3__16vectorIjNS1_9allocatorIjEEEERNS2_INS1_4pairIjjEENS3_IS9_EEEE",
            "__ZNK6LercNS11BitStuffer29EncodeLutEPPhRKNSt3__16vectorINS3_4pairIjjEENS3_9allocatorIS6_EEEEi",
            "_lerc_encodeForVersion",
            "__ZNK6LercNS5Lerc29WriteMaskEPPh",
            "__ZN6LercNS21LosslessFPCompression27ComputeHuffmanCodesFltSliceEPKvbii",
            "__ZN6LercNS5Lerc211SetIsAllIntEb",
            "__Z13ADD32_BIT_FLTRKjS0_",
            "__ZN6LercNS5Lerc225ComputeChecksumFletcher32EPKhi",
            "__ZN6LercNS9UnitTypes4typeEib",
            "__ZNK6LercNS11BitStuffer210BitUnStuffEPPKhRmRNSt3__16vectorIjNS5_9allocatorIjEEEEji",
            "_lerc_encode_4D",
            "__Z23restoreCrossBytesDoubleiPymm",
            "_lerc_computeCompressedSize_4D",
            "__ZN6LercNS7Huffman15BitUnStuffCodesEPPKhRmii",
            "__Z25restoreBlockSequenceFloatiPjmm",
            "__Z11lerc_assertb",
            "__Z13SUB64_BIT_DBLRKyS0_",
            "__ZN6LercNS5Lerc215PruneCandidatesERNSt3__16vectorIdNS1_9allocatorIdEEEES6_RNS2_IiNS3_IiEEEEd",
            "__ZN6LercNS21LosslessFPCompression16DecodeHuffmanFltEPPKhRmPvbiii",
            "__Z14encodePackBitsPKhmPPh",
            "__ZN6LercNS21LosslessFPCompression31selectInitialLinearOrCrossDeltaENS_8UnitTypeEPviiRiRbbPm",
            "__ZN6LercNS7Huffman12ComputeCodesERKNSt3__16vectorIiNS1_9allocatorIiEEEE",
            "__ZN6LercNS9CntZImageC1Ev",
            "__ZNK6LercNS7Huffman8GetRangeERiS1_S1_",
            "__ZN6LercNS3RLE10writeCountEsPPhS2_",
            "__ZN6LercNS9UnitTypes20restoreBlockSequenceEiPvmmNS_8UnitTypeE",
            "__ZNK6LercNS7Huffman14WriteCodeTableEPPhi",
            "__ZN6LercNS5Lerc221SetNumBlobsMoreToComeEi",
            "__ZN6LercNS15fpl_Compression14getEntropySizeEPKhm",
            "__ZN6LercNS3RLE10decompressEPKhmPPhRm",
            "__ZNK6LercNS7BitMask11SetAllValidEv",
            "__ZNK6LercNS3RLE8compressEPKhmPPhRmb",
            "__ZN6LercNS4Lerc6EncodeEPKviNS0_8DataTypeEiiiiiPKhdPhjRjS5_PKd",
            "__Z14moveBits2Frontj",
            "__Z15getPackBitsSizePKhmPl",
            "__ZN6LercNS4Lerc7ConvertEPKhiiRNS_7BitMaskE",
            "__ZNK6LercNS11BitStuffer28BitStuffEPPhRKNSt3__16vectorIjNS3_9allocatorIjEEEEi",
            "__Z22restoreCrossBytesFloatiPjmm",
            "__Z13getBestLevel2PKhmi",
            "__ZN6LercNS5Lerc211WriteHeaderEPPhRKNS0_10HeaderInfoE",
            "__ZN6LercNS7BitMask5ClearEv",
            "__Z15restoreSequencePhmib",
            "__ZN6LercNS4Lerc7ConvertERKNS_7BitMaskEPh",
            "__ZN6LercNS7Huffman5ClearEv",
            "__ZN6LercNS7Huffman13ReadCodeTableEPPKhRmi",
            "__ZN6LercNS4Lerc11MasksDifferEPKhS2_m",
            "__ZN6LercNS15fpl_EsriHuffman17getCompressedSizeEPKcm",
            "__ZN6LercNS15fpl_EsriHuffman13EncodeHuffmanEPKcmPPhb",
            "__ZN6LercNS9Predictor15getMaxByteDeltaENS_13PredictorTypeE",
            "__ZN6LercNS21LosslessFPCompressionD2Ev",
            "__ZN6LercNS9UnitTypes18setBlockDerivativeENS_8UnitTypeEPvmmii",
            "__ZN6LercNS5Lerc23SetEiiiPKh",
            "__ZN6LercNS9CntZImageC2Ev",
            "__ZNK6LercNS11BitStuffer26DecodeEPPKhRmRNSt3__16vectorIjNS5_9allocatorIjEEEEmi",
            "__ZN6LercNS9UnitTypes16doFloatTransformEPjm",
            "_lerc_computeCompressedSizeForVersion",
            "__Z23setCrossDerivativeFloatPjmmii",
            "__ZN6LercNS21LosslessFPCompression16EncodeHuffmanFltEPPh",
            "__ZN6LercNS5Lerc2C1EiiiPKh",
            "__Z23setRowsDerivativeDoublePymmii",
            "__ZN6LercNS15fpl_Compression14extract_bufferEPKcmmPPc",
            "_lerc_getDataRanges",
            "__ZN6LercNS7BitMask7SetSizeEii",
            "__ZN6LercNS4Lerc21ComputeCompressedSizeEPKviNS0_8DataTypeEiiiiiPKhdRjS5_PKd",
            "__ZN6LercNS7BitMaskC1ERKS0_",
            "__ZNK6LercNS7BitMask13SetAllInvalidEv",
            "_lerc_decodeToDouble_4D",
            "_lerc_encode",
            "__ZN6LercNS9CntZImage11readCntTileEPPKhiiii",
            "__Z13SUB32_BIT_FLTRKjS0_",
            "__ZN6LercNS7BitMaskC2ERKS0_",
            "__ZN6LercNS21LosslessFPCompression21DecodeHuffmanFltSliceEPPKhRmPvbii",
            "__ZN6LercNS9UnitTypes13setDerivativeENS_8UnitTypeEPvmii",
            "__ZN6LercNS9UnitTypes4sizeENS_8UnitTypeE",
            "_lerc_decode",
            "__ZN6LercNS5Lerc2C1Ev",
            "__ZN6LercNS5Lerc28ReadMaskEPPKhRm",
            "__ZN6LercNS3RLE10decompressEPKhmPhm",
            "__ZN6LercNS4Lerc6DecodeEPKhjiPhiiiiNS0_8DataTypeEPvS3_Pd",
            "__Z24setCrossDerivativeDoublePymmii",
            "__Z22ComputeHistoForHuffmanPKhmRNSt3__16vectorIiNS1_9allocatorIiEEEE",
            "__ZN6LercNS11BitStuffer223BitStuff_Before_Lerc2v3EPPhRKNSt3__16vectorIjNS3_9allocatorIjEEEEi",
            "__ZN6LercNS10BitStuffer21numTailBytesNotNeededEji",
            "__ZN6LercNS9Predictor11getIntDeltaENS_13PredictorTypeE",
            "__ZN6LercNS15fpl_Compression15compress_bufferEPKcmPPcb",
            "_lerc_getBlobInfo",
            "__Z19undo_moveBits2Frontj",
            "__ZN6LercNS5Lerc222SetEncoderToOldVersionEi",
            "__ZN6LercNS9CntZImage7readFltEPPKhRfi",
            "__ZN6LercNS9CntZImage9readZTileEPPKhiiiidf",
            "__ZNK6LercNS5Lerc216DoChecksOnEncodeEPhS1_",
            "_lerc_decodeToDouble",
            "__ZN6LercNS5Lerc2C2EiiiPKh",
            "__ZN6LercNS9CntZImage33computeNumBytesNeededToReadHeaderEb",
            "__ZN6LercNS7Huffman23ConvertCodesToCanonicalEv",
            "__Z19ComputeHuffmanCodesPKhmRiRNSt3__16vectorINS2_4pairItjEENS2_9allocatorIS5_EEEE",
            "__ZN6LercNS9CntZImage9readTilesEbdiifPKh",
            "__Z19setDerivativeDoublePymii",
            "__ZNK6LercNS7BitMask14CountValidBitsEv",
            "__Z16restoreByteOrderRNSt3__16vectorINS_4pairIiPcEENS_9allocatorIS3_EEEEmmN6LercNS13PredictorTypeENS8_8UnitTypeEPPh",
            "__ZN6LercNS9UnitTypes17setRowsDerivativeENS_8UnitTypeEPvmmii",
            "__ZNK6LercNS21LosslessFPCompression16compressedLengthEv",
            "__ZNK6LercNS3RLE18computeNumBytesRLEEPKhm",
            "__ZN6LercNS9CntZImage11resizeFill0Eii",
            "__ZN6LercNS9UnitTypes17restoreCrossBytesEiPvmmNS_8UnitTypeE",
            "__ZN6LercNS21LosslessFPCompression22ComputeHuffmanCodesFltEPKvbiii",
            "__ZN6LercNS5Lerc24InitEv",
            "__ZN6LercNS9UnitTypes18setCrossDerivativeENS_8UnitTypeEPvmmii",
            "__ZN6LercNS9CntZImage4readEPPKhdbb",
            "__Z17restoreCrossBytesRNSt3__16vectorINS_4pairIiPcEENS_9allocatorIS3_EEEEmmmN6LercNS13PredictorTypeENS8_8UnitTypeEPPh",
            "__ZN6LercNS7Huffman18BuildTreeFromCodesERi",
            "__ZNK6LercNS7Huffman24ComputeNumBytesCodeTableERi",
            "__ZN6LercNS5Lerc210ReadHeaderEPPKhRmRNS0_10HeaderInfoE",
            "__ZN6LercNS4Lerc15ConvertToDoubleEPKvNS0_8DataTypeEmPd"
          ],
          "weak": [
            "__ZN6LercNS5Lerc26EncodeIfEEbPKT_PPh",
            "__ZN6LercNS5Lerc228ComputeNumBytesNeededToWriteIiEEjPKT_db",
            "__ZN6LercNS5Lerc228ComputeNumBytesNeededToWriteIdEEjPKT_db",
            "__ZN6LercNS5Lerc26DecodeIaEEbPPKhRmPT_Ph",
            "__ZN6LercNS5Lerc26EncodeIsEEbPKT_PPh",
            "__ZN6LercNS5Lerc26DecodeIfEEbPPKhRmPT_Ph",
            "__ZN6LercNS5Lerc228ComputeNumBytesNeededToWriteIhEEjPKT_db",
            "__ZN6LercNS5Lerc26EncodeIhEEbPKT_PPh",
            "__ZN6LercNS5Lerc26DecodeIsEEbPPKhRmPT_Ph",
            "__ZN6LercNS5Lerc26DecodeIjEEbPPKhRmPT_Ph",
            "__ZN6LercNS5Lerc26DecodeIiEEbPPKhRmPT_Ph",
            "__ZN6LercNS5Lerc26EncodeIiEEbPKT_PPh",
            "__ZN6LercNS5Lerc26EncodeIaEEbPKT_PPh",
            "__ZN6LercNS5Lerc228ComputeNumBytesNeededToWriteIsEEjPKT_db",
            "__ZN6LercNS5Lerc26EncodeItEEbPKT_PPh",
            "__ZN6LercNS5Lerc26DecodeIhEEbPPKhRmPT_Ph",
            "__ZN6LercNS5Lerc26EncodeIdEEbPKT_PPh",
            "__ZN6LercNS5Lerc228ComputeNumBytesNeededToWriteIaEEjPKT_db",
            "__ZN6LercNS5Lerc228ComputeNumBytesNeededToWriteItEEjPKT_db",
            "__ZN6LercNS5Lerc26DecodeItEEbPPKhRmPT_Ph",
            "__ZN6LercNS5Lerc228ComputeNumBytesNeededToWriteIfEEjPKT_db",
            "__ZN6LercNS5Lerc228ComputeNumBytesNeededToWriteIjEEjPKT_db",
            "__ZN6LercNS5Lerc26DecodeIdEEbPPKhRmPT_Ph",
            "__ZN6LercNS5Lerc26EncodeIjEEbPKT_PPh"
          ]
        }
      }
    ],
    "flags": [
      {
        "attributes": [
          "not_app_extension_safe"
        ]
      }
    ],
    "install_names": [
      {
        "name": "@rpath/libLerc.4.dylib"
      }
    ],
    "target_info": [
      {
        "min_deployment": "2",
        "target": "arm64-xros"
      }
    ]
  },
  "tapi_tbd_version": 5
}
